
ctarget:     file format elf64-x86-64


Disassembly of section .init:

0000000000400c68 <_init>:
  400c68:	48 83 ec 08          	sub    $0x8,%rsp
  400c6c:	48 8b 05 85 43 20 00 	mov    0x204385(%rip),%rax        # 604ff8 <__gmon_start__>
  400c73:	48 85 c0             	test   %rax,%rax
  400c76:	74 05                	je     400c7d <_init+0x15>
  400c78:	e8 43 02 00 00       	callq  400ec0 <__gmon_start__@plt>
  400c7d:	48 83 c4 08          	add    $0x8,%rsp
  400c81:	c3                   	retq   

Disassembly of section .plt:

0000000000400c90 <.plt>:
  400c90:	ff 35 72 43 20 00    	pushq  0x204372(%rip)        # 605008 <_GLOBAL_OFFSET_TABLE_+0x8>
  400c96:	ff 25 74 43 20 00    	jmpq   *0x204374(%rip)        # 605010 <_GLOBAL_OFFSET_TABLE_+0x10>
  400c9c:	0f 1f 40 00          	nopl   0x0(%rax)

0000000000400ca0 <strcasecmp@plt>:
  400ca0:	ff 25 72 43 20 00    	jmpq   *0x204372(%rip)        # 605018 <strcasecmp@GLIBC_2.2.5>
  400ca6:	68 00 00 00 00       	pushq  $0x0
  400cab:	e9 e0 ff ff ff       	jmpq   400c90 <.plt>

0000000000400cb0 <__errno_location@plt>:
  400cb0:	ff 25 6a 43 20 00    	jmpq   *0x20436a(%rip)        # 605020 <__errno_location@GLIBC_2.2.5>
  400cb6:	68 01 00 00 00       	pushq  $0x1
  400cbb:	e9 d0 ff ff ff       	jmpq   400c90 <.plt>

0000000000400cc0 <srandom@plt>:
  400cc0:	ff 25 62 43 20 00    	jmpq   *0x204362(%rip)        # 605028 <srandom@GLIBC_2.2.5>
  400cc6:	68 02 00 00 00       	pushq  $0x2
  400ccb:	e9 c0 ff ff ff       	jmpq   400c90 <.plt>

0000000000400cd0 <strncmp@plt>:
  400cd0:	ff 25 5a 43 20 00    	jmpq   *0x20435a(%rip)        # 605030 <strncmp@GLIBC_2.2.5>
  400cd6:	68 03 00 00 00       	pushq  $0x3
  400cdb:	e9 b0 ff ff ff       	jmpq   400c90 <.plt>

0000000000400ce0 <strcpy@plt>:
  400ce0:	ff 25 52 43 20 00    	jmpq   *0x204352(%rip)        # 605038 <strcpy@GLIBC_2.2.5>
  400ce6:	68 04 00 00 00       	pushq  $0x4
  400ceb:	e9 a0 ff ff ff       	jmpq   400c90 <.plt>

0000000000400cf0 <puts@plt>:
  400cf0:	ff 25 4a 43 20 00    	jmpq   *0x20434a(%rip)        # 605040 <puts@GLIBC_2.2.5>
  400cf6:	68 05 00 00 00       	pushq  $0x5
  400cfb:	e9 90 ff ff ff       	jmpq   400c90 <.plt>

0000000000400d00 <write@plt>:
  400d00:	ff 25 42 43 20 00    	jmpq   *0x204342(%rip)        # 605048 <write@GLIBC_2.2.5>
  400d06:	68 06 00 00 00       	pushq  $0x6
  400d0b:	e9 80 ff ff ff       	jmpq   400c90 <.plt>

0000000000400d10 <__stack_chk_fail@plt>:
  400d10:	ff 25 3a 43 20 00    	jmpq   *0x20433a(%rip)        # 605050 <__stack_chk_fail@GLIBC_2.4>
  400d16:	68 07 00 00 00       	pushq  $0x7
  400d1b:	e9 70 ff ff ff       	jmpq   400c90 <.plt>

0000000000400d20 <mmap@plt>:
  400d20:	ff 25 32 43 20 00    	jmpq   *0x204332(%rip)        # 605058 <mmap@GLIBC_2.2.5>
  400d26:	68 08 00 00 00       	pushq  $0x8
  400d2b:	e9 60 ff ff ff       	jmpq   400c90 <.plt>

0000000000400d30 <memset@plt>:
  400d30:	ff 25 2a 43 20 00    	jmpq   *0x20432a(%rip)        # 605060 <memset@GLIBC_2.2.5>
  400d36:	68 09 00 00 00       	pushq  $0x9
  400d3b:	e9 50 ff ff ff       	jmpq   400c90 <.plt>

0000000000400d40 <alarm@plt>:
  400d40:	ff 25 22 43 20 00    	jmpq   *0x204322(%rip)        # 605068 <alarm@GLIBC_2.2.5>
  400d46:	68 0a 00 00 00       	pushq  $0xa
  400d4b:	e9 40 ff ff ff       	jmpq   400c90 <.plt>

0000000000400d50 <close@plt>:
  400d50:	ff 25 1a 43 20 00    	jmpq   *0x20431a(%rip)        # 605070 <close@GLIBC_2.2.5>
  400d56:	68 0b 00 00 00       	pushq  $0xb
  400d5b:	e9 30 ff ff ff       	jmpq   400c90 <.plt>

0000000000400d60 <read@plt>:
  400d60:	ff 25 12 43 20 00    	jmpq   *0x204312(%rip)        # 605078 <read@GLIBC_2.2.5>
  400d66:	68 0c 00 00 00       	pushq  $0xc
  400d6b:	e9 20 ff ff ff       	jmpq   400c90 <.plt>

0000000000400d70 <__libc_start_main@plt>:
  400d70:	ff 25 0a 43 20 00    	jmpq   *0x20430a(%rip)        # 605080 <__libc_start_main@GLIBC_2.2.5>
  400d76:	68 0d 00 00 00       	pushq  $0xd
  400d7b:	e9 10 ff ff ff       	jmpq   400c90 <.plt>

0000000000400d80 <signal@plt>:
  400d80:	ff 25 02 43 20 00    	jmpq   *0x204302(%rip)        # 605088 <signal@GLIBC_2.2.5>
  400d86:	68 0e 00 00 00       	pushq  $0xe
  400d8b:	e9 00 ff ff ff       	jmpq   400c90 <.plt>

0000000000400d90 <gethostbyname@plt>:
  400d90:	ff 25 fa 42 20 00    	jmpq   *0x2042fa(%rip)        # 605090 <gethostbyname@GLIBC_2.2.5>
  400d96:	68 0f 00 00 00       	pushq  $0xf
  400d9b:	e9 f0 fe ff ff       	jmpq   400c90 <.plt>

0000000000400da0 <__memmove_chk@plt>:
  400da0:	ff 25 f2 42 20 00    	jmpq   *0x2042f2(%rip)        # 605098 <__memmove_chk@GLIBC_2.3.4>
  400da6:	68 10 00 00 00       	pushq  $0x10
  400dab:	e9 e0 fe ff ff       	jmpq   400c90 <.plt>

0000000000400db0 <strtol@plt>:
  400db0:	ff 25 ea 42 20 00    	jmpq   *0x2042ea(%rip)        # 6050a0 <strtol@GLIBC_2.2.5>
  400db6:	68 11 00 00 00       	pushq  $0x11
  400dbb:	e9 d0 fe ff ff       	jmpq   400c90 <.plt>

0000000000400dc0 <memcpy@plt>:
  400dc0:	ff 25 e2 42 20 00    	jmpq   *0x2042e2(%rip)        # 6050a8 <memcpy@GLIBC_2.14>
  400dc6:	68 12 00 00 00       	pushq  $0x12
  400dcb:	e9 c0 fe ff ff       	jmpq   400c90 <.plt>

0000000000400dd0 <time@plt>:
  400dd0:	ff 25 da 42 20 00    	jmpq   *0x2042da(%rip)        # 6050b0 <time@GLIBC_2.2.5>
  400dd6:	68 13 00 00 00       	pushq  $0x13
  400ddb:	e9 b0 fe ff ff       	jmpq   400c90 <.plt>

0000000000400de0 <random@plt>:
  400de0:	ff 25 d2 42 20 00    	jmpq   *0x2042d2(%rip)        # 6050b8 <random@GLIBC_2.2.5>
  400de6:	68 14 00 00 00       	pushq  $0x14
  400deb:	e9 a0 fe ff ff       	jmpq   400c90 <.plt>

0000000000400df0 <_IO_getc@plt>:
  400df0:	ff 25 ca 42 20 00    	jmpq   *0x2042ca(%rip)        # 6050c0 <_IO_getc@GLIBC_2.2.5>
  400df6:	68 15 00 00 00       	pushq  $0x15
  400dfb:	e9 90 fe ff ff       	jmpq   400c90 <.plt>

0000000000400e00 <__isoc99_sscanf@plt>:
  400e00:	ff 25 c2 42 20 00    	jmpq   *0x2042c2(%rip)        # 6050c8 <__isoc99_sscanf@GLIBC_2.7>
  400e06:	68 16 00 00 00       	pushq  $0x16
  400e0b:	e9 80 fe ff ff       	jmpq   400c90 <.plt>

0000000000400e10 <munmap@plt>:
  400e10:	ff 25 ba 42 20 00    	jmpq   *0x2042ba(%rip)        # 6050d0 <munmap@GLIBC_2.2.5>
  400e16:	68 17 00 00 00       	pushq  $0x17
  400e1b:	e9 70 fe ff ff       	jmpq   400c90 <.plt>

0000000000400e20 <__printf_chk@plt>:
  400e20:	ff 25 b2 42 20 00    	jmpq   *0x2042b2(%rip)        # 6050d8 <__printf_chk@GLIBC_2.3.4>
  400e26:	68 18 00 00 00       	pushq  $0x18
  400e2b:	e9 60 fe ff ff       	jmpq   400c90 <.plt>

0000000000400e30 <fopen@plt>:
  400e30:	ff 25 aa 42 20 00    	jmpq   *0x2042aa(%rip)        # 6050e0 <fopen@GLIBC_2.2.5>
  400e36:	68 19 00 00 00       	pushq  $0x19
  400e3b:	e9 50 fe ff ff       	jmpq   400c90 <.plt>

0000000000400e40 <getopt@plt>:
  400e40:	ff 25 a2 42 20 00    	jmpq   *0x2042a2(%rip)        # 6050e8 <getopt@GLIBC_2.2.5>
  400e46:	68 1a 00 00 00       	pushq  $0x1a
  400e4b:	e9 40 fe ff ff       	jmpq   400c90 <.plt>

0000000000400e50 <strtoul@plt>:
  400e50:	ff 25 9a 42 20 00    	jmpq   *0x20429a(%rip)        # 6050f0 <strtoul@GLIBC_2.2.5>
  400e56:	68 1b 00 00 00       	pushq  $0x1b
  400e5b:	e9 30 fe ff ff       	jmpq   400c90 <.plt>

0000000000400e60 <gethostname@plt>:
  400e60:	ff 25 92 42 20 00    	jmpq   *0x204292(%rip)        # 6050f8 <gethostname@GLIBC_2.2.5>
  400e66:	68 1c 00 00 00       	pushq  $0x1c
  400e6b:	e9 20 fe ff ff       	jmpq   400c90 <.plt>

0000000000400e70 <exit@plt>:
  400e70:	ff 25 8a 42 20 00    	jmpq   *0x20428a(%rip)        # 605100 <exit@GLIBC_2.2.5>
  400e76:	68 1d 00 00 00       	pushq  $0x1d
  400e7b:	e9 10 fe ff ff       	jmpq   400c90 <.plt>

0000000000400e80 <connect@plt>:
  400e80:	ff 25 82 42 20 00    	jmpq   *0x204282(%rip)        # 605108 <connect@GLIBC_2.2.5>
  400e86:	68 1e 00 00 00       	pushq  $0x1e
  400e8b:	e9 00 fe ff ff       	jmpq   400c90 <.plt>

0000000000400e90 <__fprintf_chk@plt>:
  400e90:	ff 25 7a 42 20 00    	jmpq   *0x20427a(%rip)        # 605110 <__fprintf_chk@GLIBC_2.3.4>
  400e96:	68 1f 00 00 00       	pushq  $0x1f
  400e9b:	e9 f0 fd ff ff       	jmpq   400c90 <.plt>

0000000000400ea0 <__sprintf_chk@plt>:
  400ea0:	ff 25 72 42 20 00    	jmpq   *0x204272(%rip)        # 605118 <__sprintf_chk@GLIBC_2.3.4>
  400ea6:	68 20 00 00 00       	pushq  $0x20
  400eab:	e9 e0 fd ff ff       	jmpq   400c90 <.plt>

0000000000400eb0 <socket@plt>:
  400eb0:	ff 25 6a 42 20 00    	jmpq   *0x20426a(%rip)        # 605120 <socket@GLIBC_2.2.5>
  400eb6:	68 21 00 00 00       	pushq  $0x21
  400ebb:	e9 d0 fd ff ff       	jmpq   400c90 <.plt>

Disassembly of section .plt.got:

0000000000400ec0 <__gmon_start__@plt>:
  400ec0:	ff 25 32 41 20 00    	jmpq   *0x204132(%rip)        # 604ff8 <__gmon_start__>
  400ec6:	66 90                	xchg   %ax,%ax

Disassembly of section .text:

0000000000400ed0 <_start>:
  400ed0:	31 ed                	xor    %ebp,%ebp
  400ed2:	49 89 d1             	mov    %rdx,%r9
  400ed5:	5e                   	pop    %rsi
  400ed6:	48 89 e2             	mov    %rsp,%rdx
  400ed9:	48 83 e4 f0          	and    $0xfffffffffffffff0,%rsp
  400edd:	50                   	push   %rax
  400ede:	54                   	push   %rsp
  400edf:	49 c7 c0 60 2e 40 00 	mov    $0x402e60,%r8
  400ee6:	48 c7 c1 f0 2d 40 00 	mov    $0x402df0,%rcx
  400eed:	48 c7 c7 d5 11 40 00 	mov    $0x4011d5,%rdi
  400ef4:	e8 77 fe ff ff       	callq  400d70 <__libc_start_main@plt>
  400ef9:	f4                   	hlt    
  400efa:	66 0f 1f 44 00 00    	nopw   0x0(%rax,%rax,1)

0000000000400f00 <deregister_tm_clones>:
  400f00:	b8 b7 54 60 00       	mov    $0x6054b7,%eax
  400f05:	55                   	push   %rbp
  400f06:	48 2d b0 54 60 00    	sub    $0x6054b0,%rax
  400f0c:	48 83 f8 0e          	cmp    $0xe,%rax
  400f10:	48 89 e5             	mov    %rsp,%rbp
  400f13:	76 1b                	jbe    400f30 <deregister_tm_clones+0x30>
  400f15:	b8 00 00 00 00       	mov    $0x0,%eax
  400f1a:	48 85 c0             	test   %rax,%rax
  400f1d:	74 11                	je     400f30 <deregister_tm_clones+0x30>
  400f1f:	5d                   	pop    %rbp
  400f20:	bf b0 54 60 00       	mov    $0x6054b0,%edi
  400f25:	ff e0                	jmpq   *%rax
  400f27:	66 0f 1f 84 00 00 00 	nopw   0x0(%rax,%rax,1)
  400f2e:	00 00 
  400f30:	5d                   	pop    %rbp
  400f31:	c3                   	retq   
  400f32:	0f 1f 40 00          	nopl   0x0(%rax)
  400f36:	66 2e 0f 1f 84 00 00 	nopw   %cs:0x0(%rax,%rax,1)
  400f3d:	00 00 00 

0000000000400f40 <register_tm_clones>:
  400f40:	be b0 54 60 00       	mov    $0x6054b0,%esi
  400f45:	55                   	push   %rbp
  400f46:	48 81 ee b0 54 60 00 	sub    $0x6054b0,%rsi
  400f4d:	48 c1 fe 03          	sar    $0x3,%rsi
  400f51:	48 89 e5             	mov    %rsp,%rbp
  400f54:	48 89 f0             	mov    %rsi,%rax
  400f57:	48 c1 e8 3f          	shr    $0x3f,%rax
  400f5b:	48 01 c6             	add    %rax,%rsi
  400f5e:	48 d1 fe             	sar    %rsi
  400f61:	74 15                	je     400f78 <register_tm_clones+0x38>
  400f63:	b8 00 00 00 00       	mov    $0x0,%eax
  400f68:	48 85 c0             	test   %rax,%rax
  400f6b:	74 0b                	je     400f78 <register_tm_clones+0x38>
  400f6d:	5d                   	pop    %rbp
  400f6e:	bf b0 54 60 00       	mov    $0x6054b0,%edi
  400f73:	ff e0                	jmpq   *%rax
  400f75:	0f 1f 00             	nopl   (%rax)
  400f78:	5d                   	pop    %rbp
  400f79:	c3                   	retq   
  400f7a:	66 0f 1f 44 00 00    	nopw   0x0(%rax,%rax,1)

0000000000400f80 <__do_global_dtors_aux>:
  400f80:	80 3d 61 45 20 00 00 	cmpb   $0x0,0x204561(%rip)        # 6054e8 <completed.7594>
  400f87:	75 11                	jne    400f9a <__do_global_dtors_aux+0x1a>
  400f89:	55                   	push   %rbp
  400f8a:	48 89 e5             	mov    %rsp,%rbp
  400f8d:	e8 6e ff ff ff       	callq  400f00 <deregister_tm_clones>
  400f92:	5d                   	pop    %rbp
  400f93:	c6 05 4e 45 20 00 01 	movb   $0x1,0x20454e(%rip)        # 6054e8 <completed.7594>
  400f9a:	f3 c3                	repz retq 
  400f9c:	0f 1f 40 00          	nopl   0x0(%rax)

0000000000400fa0 <frame_dummy>:
  400fa0:	bf 10 4e 60 00       	mov    $0x604e10,%edi
  400fa5:	48 83 3f 00          	cmpq   $0x0,(%rdi)
  400fa9:	75 05                	jne    400fb0 <frame_dummy+0x10>
  400fab:	eb 93                	jmp    400f40 <register_tm_clones>
  400fad:	0f 1f 00             	nopl   (%rax)
  400fb0:	b8 00 00 00 00       	mov    $0x0,%eax
  400fb5:	48 85 c0             	test   %rax,%rax
  400fb8:	74 f1                	je     400fab <frame_dummy+0xb>
  400fba:	55                   	push   %rbp
  400fbb:	48 89 e5             	mov    %rsp,%rbp
  400fbe:	ff d0                	callq  *%rax
  400fc0:	5d                   	pop    %rbp
  400fc1:	e9 7a ff ff ff       	jmpq   400f40 <register_tm_clones>

0000000000400fc6 <usage>:
  400fc6:	48 83 ec 08          	sub    $0x8,%rsp
  400fca:	48 89 fa             	mov    %rdi,%rdx
  400fcd:	83 3d 54 45 20 00 00 	cmpl   $0x0,0x204554(%rip)        # 605528 <is_checker>
  400fd4:	74 3e                	je     401014 <usage+0x4e>
  400fd6:	be 78 2e 40 00       	mov    $0x402e78,%esi
  400fdb:	bf 01 00 00 00       	mov    $0x1,%edi
  400fe0:	b8 00 00 00 00       	mov    $0x0,%eax
  400fe5:	e8 36 fe ff ff       	callq  400e20 <__printf_chk@plt>
  400fea:	bf b0 2e 40 00       	mov    $0x402eb0,%edi
  400fef:	e8 fc fc ff ff       	callq  400cf0 <puts@plt>
  400ff4:	bf 28 30 40 00       	mov    $0x403028,%edi
  400ff9:	e8 f2 fc ff ff       	callq  400cf0 <puts@plt>
  400ffe:	bf d8 2e 40 00       	mov    $0x402ed8,%edi
  401003:	e8 e8 fc ff ff       	callq  400cf0 <puts@plt>
  401008:	bf 42 30 40 00       	mov    $0x403042,%edi
  40100d:	e8 de fc ff ff       	callq  400cf0 <puts@plt>
  401012:	eb 32                	jmp    401046 <usage+0x80>
  401014:	be 5e 30 40 00       	mov    $0x40305e,%esi
  401019:	bf 01 00 00 00       	mov    $0x1,%edi
  40101e:	b8 00 00 00 00       	mov    $0x0,%eax
  401023:	e8 f8 fd ff ff       	callq  400e20 <__printf_chk@plt>
  401028:	bf 00 2f 40 00       	mov    $0x402f00,%edi
  40102d:	e8 be fc ff ff       	callq  400cf0 <puts@plt>
  401032:	bf 28 2f 40 00       	mov    $0x402f28,%edi
  401037:	e8 b4 fc ff ff       	callq  400cf0 <puts@plt>
  40103c:	bf 7c 30 40 00       	mov    $0x40307c,%edi
  401041:	e8 aa fc ff ff       	callq  400cf0 <puts@plt>
  401046:	bf 00 00 00 00       	mov    $0x0,%edi
  40104b:	e8 20 fe ff ff       	callq  400e70 <exit@plt>

0000000000401050 <initialize_target>:
  401050:	55                   	push   %rbp
  401051:	53                   	push   %rbx
  401052:	48 81 ec 18 21 00 00 	sub    $0x2118,%rsp
  401059:	89 f5                	mov    %esi,%ebp
  40105b:	64 48 8b 04 25 28 00 	mov    %fs:0x28,%rax
  401062:	00 00 
  401064:	48 89 84 24 08 21 00 	mov    %rax,0x2108(%rsp)
  40106b:	00 
  40106c:	31 c0                	xor    %eax,%eax
  40106e:	89 3d a4 44 20 00    	mov    %edi,0x2044a4(%rip)        # 605518 <check_level>
  401074:	8b 3d ee 40 20 00    	mov    0x2040ee(%rip),%edi        # 605168 <target_id>
  40107a:	e8 4c 1d 00 00       	callq  402dcb <gencookie>
  40107f:	89 05 9f 44 20 00    	mov    %eax,0x20449f(%rip)        # 605524 <cookie>
  401085:	89 c7                	mov    %eax,%edi
  401087:	e8 3f 1d 00 00       	callq  402dcb <gencookie>
  40108c:	89 05 8e 44 20 00    	mov    %eax,0x20448e(%rip)        # 605520 <authkey>
  401092:	8b 05 d0 40 20 00    	mov    0x2040d0(%rip),%eax        # 605168 <target_id>
  401098:	8d 78 01             	lea    0x1(%rax),%edi
  40109b:	e8 20 fc ff ff       	callq  400cc0 <srandom@plt>
  4010a0:	e8 3b fd ff ff       	callq  400de0 <random@plt>
  4010a5:	89 c7                	mov    %eax,%edi
  4010a7:	e8 03 03 00 00       	callq  4013af <scramble>
  4010ac:	89 c3                	mov    %eax,%ebx
  4010ae:	85 ed                	test   %ebp,%ebp
  4010b0:	74 18                	je     4010ca <initialize_target+0x7a>
  4010b2:	bf 00 00 00 00       	mov    $0x0,%edi
  4010b7:	e8 14 fd ff ff       	callq  400dd0 <time@plt>
  4010bc:	89 c7                	mov    %eax,%edi
  4010be:	e8 fd fb ff ff       	callq  400cc0 <srandom@plt>
  4010c3:	e8 18 fd ff ff       	callq  400de0 <random@plt>
  4010c8:	eb 05                	jmp    4010cf <initialize_target+0x7f>
  4010ca:	b8 00 00 00 00       	mov    $0x0,%eax
  4010cf:	01 c3                	add    %eax,%ebx
  4010d1:	0f b7 db             	movzwl %bx,%ebx
  4010d4:	8d 04 dd 00 01 00 00 	lea    0x100(,%rbx,8),%eax
  4010db:	89 c0                	mov    %eax,%eax
  4010dd:	48 89 05 bc 43 20 00 	mov    %rax,0x2043bc(%rip)        # 6054a0 <buf_offset>
  4010e4:	c6 05 5d 50 20 00 63 	movb   $0x63,0x20505d(%rip)        # 606148 <target_prefix>
  4010eb:	83 3d b6 43 20 00 00 	cmpl   $0x0,0x2043b6(%rip)        # 6054a8 <notify>
  4010f2:	0f 84 bb 00 00 00    	je     4011b3 <initialize_target+0x163>
  4010f8:	83 3d 29 44 20 00 00 	cmpl   $0x0,0x204429(%rip)        # 605528 <is_checker>
  4010ff:	0f 85 ae 00 00 00    	jne    4011b3 <initialize_target+0x163>
  401105:	be 00 01 00 00       	mov    $0x100,%esi
  40110a:	48 89 e7             	mov    %rsp,%rdi
  40110d:	e8 4e fd ff ff       	callq  400e60 <gethostname@plt>
  401112:	85 c0                	test   %eax,%eax
  401114:	74 25                	je     40113b <initialize_target+0xeb>
  401116:	bf 58 2f 40 00       	mov    $0x402f58,%edi
  40111b:	e8 d0 fb ff ff       	callq  400cf0 <puts@plt>
  401120:	bf 08 00 00 00       	mov    $0x8,%edi
  401125:	e8 46 fd ff ff       	callq  400e70 <exit@plt>
  40112a:	48 89 e6             	mov    %rsp,%rsi
  40112d:	e8 6e fb ff ff       	callq  400ca0 <strcasecmp@plt>
  401132:	85 c0                	test   %eax,%eax
  401134:	74 21                	je     401157 <initialize_target+0x107>
  401136:	83 c3 01             	add    $0x1,%ebx
  401139:	eb 05                	jmp    401140 <initialize_target+0xf0>
  40113b:	bb 00 00 00 00       	mov    $0x0,%ebx
  401140:	48 63 c3             	movslq %ebx,%rax
  401143:	48 8b 3c c5 80 51 60 	mov    0x605180(,%rax,8),%rdi
  40114a:	00 
  40114b:	48 85 ff             	test   %rdi,%rdi
  40114e:	75 da                	jne    40112a <initialize_target+0xda>
  401150:	b8 00 00 00 00       	mov    $0x0,%eax
  401155:	eb 05                	jmp    40115c <initialize_target+0x10c>
  401157:	b8 01 00 00 00       	mov    $0x1,%eax
  40115c:	85 c0                	test   %eax,%eax
  40115e:	75 1c                	jne    40117c <initialize_target+0x12c>
  401160:	48 89 e2             	mov    %rsp,%rdx
  401163:	be 90 2f 40 00       	mov    $0x402f90,%esi
  401168:	bf 01 00 00 00       	mov    $0x1,%edi
  40116d:	e8 ae fc ff ff       	callq  400e20 <__printf_chk@plt>
  401172:	bf 08 00 00 00       	mov    $0x8,%edi
  401177:	e8 f4 fc ff ff       	callq  400e70 <exit@plt>
  40117c:	48 8d bc 24 00 01 00 	lea    0x100(%rsp),%rdi
  401183:	00 
  401184:	e8 ac 19 00 00       	callq  402b35 <init_driver>
  401189:	85 c0                	test   %eax,%eax
  40118b:	79 26                	jns    4011b3 <initialize_target+0x163>
  40118d:	48 8d 94 24 00 01 00 	lea    0x100(%rsp),%rdx
  401194:	00 
  401195:	be d0 2f 40 00       	mov    $0x402fd0,%esi
  40119a:	bf 01 00 00 00       	mov    $0x1,%edi
  40119f:	b8 00 00 00 00       	mov    $0x0,%eax
  4011a4:	e8 77 fc ff ff       	callq  400e20 <__printf_chk@plt>
  4011a9:	bf 08 00 00 00       	mov    $0x8,%edi
  4011ae:	e8 bd fc ff ff       	callq  400e70 <exit@plt>
  4011b3:	48 8b 84 24 08 21 00 	mov    0x2108(%rsp),%rax
  4011ba:	00 
  4011bb:	64 48 33 04 25 28 00 	xor    %fs:0x28,%rax
  4011c2:	00 00 
  4011c4:	74 05                	je     4011cb <initialize_target+0x17b>
  4011c6:	e8 45 fb ff ff       	callq  400d10 <__stack_chk_fail@plt>
  4011cb:	48 81 c4 18 21 00 00 	add    $0x2118,%rsp
  4011d2:	5b                   	pop    %rbx
  4011d3:	5d                   	pop    %rbp
  4011d4:	c3                   	retq   

00000000004011d5 <main>:
  4011d5:	41 56                	push   %r14
  4011d7:	41 55                	push   %r13
  4011d9:	41 54                	push   %r12
  4011db:	55                   	push   %rbp
  4011dc:	53                   	push   %rbx
  4011dd:	41 89 fc             	mov    %edi,%r12d
  4011e0:	48 89 f3             	mov    %rsi,%rbx
  4011e3:	be 55 1e 40 00       	mov    $0x401e55,%esi
  4011e8:	bf 0b 00 00 00       	mov    $0xb,%edi
  4011ed:	e8 8e fb ff ff       	callq  400d80 <signal@plt>
  4011f2:	be 07 1e 40 00       	mov    $0x401e07,%esi
  4011f7:	bf 07 00 00 00       	mov    $0x7,%edi
  4011fc:	e8 7f fb ff ff       	callq  400d80 <signal@plt>
  401201:	be a3 1e 40 00       	mov    $0x401ea3,%esi
  401206:	bf 04 00 00 00       	mov    $0x4,%edi
  40120b:	e8 70 fb ff ff       	callq  400d80 <signal@plt>
  401210:	83 3d 11 43 20 00 00 	cmpl   $0x0,0x204311(%rip)        # 605528 <is_checker>
  401217:	74 20                	je     401239 <main+0x64>
  401219:	be f1 1e 40 00       	mov    $0x401ef1,%esi
  40121e:	bf 0e 00 00 00       	mov    $0xe,%edi
  401223:	e8 58 fb ff ff       	callq  400d80 <signal@plt>
  401228:	bf 05 00 00 00       	mov    $0x5,%edi
  40122d:	e8 0e fb ff ff       	callq  400d40 <alarm@plt>
  401232:	bd 9a 30 40 00       	mov    $0x40309a,%ebp
  401237:	eb 05                	jmp    40123e <main+0x69>
  401239:	bd 95 30 40 00       	mov    $0x403095,%ebp
  40123e:	48 8b 05 7b 42 20 00 	mov    0x20427b(%rip),%rax        # 6054c0 <stdin@@GLIBC_2.2.5>
  401245:	48 89 05 c4 42 20 00 	mov    %rax,0x2042c4(%rip)        # 605510 <infile>
  40124c:	41 bd 00 00 00 00    	mov    $0x0,%r13d
  401252:	41 be 00 00 00 00    	mov    $0x0,%r14d
  401258:	e9 c6 00 00 00       	jmpq   401323 <main+0x14e>
  40125d:	83 e8 61             	sub    $0x61,%eax
  401260:	3c 10                	cmp    $0x10,%al
  401262:	0f 87 9c 00 00 00    	ja     401304 <main+0x12f>
  401268:	0f b6 c0             	movzbl %al,%eax
  40126b:	ff 24 c5 e0 30 40 00 	jmpq   *0x4030e0(,%rax,8)
  401272:	48 8b 3b             	mov    (%rbx),%rdi
  401275:	e8 4c fd ff ff       	callq  400fc6 <usage>
  40127a:	be ed 33 40 00       	mov    $0x4033ed,%esi
  40127f:	48 8b 3d 42 42 20 00 	mov    0x204242(%rip),%rdi        # 6054c8 <optarg@@GLIBC_2.2.5>
  401286:	e8 a5 fb ff ff       	callq  400e30 <fopen@plt>
  40128b:	48 89 05 7e 42 20 00 	mov    %rax,0x20427e(%rip)        # 605510 <infile>
  401292:	48 85 c0             	test   %rax,%rax
  401295:	0f 85 88 00 00 00    	jne    401323 <main+0x14e>
  40129b:	48 8b 0d 26 42 20 00 	mov    0x204226(%rip),%rcx        # 6054c8 <optarg@@GLIBC_2.2.5>
  4012a2:	ba a2 30 40 00       	mov    $0x4030a2,%edx
  4012a7:	be 01 00 00 00       	mov    $0x1,%esi
  4012ac:	48 8b 3d 2d 42 20 00 	mov    0x20422d(%rip),%rdi        # 6054e0 <stderr@@GLIBC_2.2.5>
  4012b3:	e8 d8 fb ff ff       	callq  400e90 <__fprintf_chk@plt>
  4012b8:	b8 01 00 00 00       	mov    $0x1,%eax
  4012bd:	e9 e4 00 00 00       	jmpq   4013a6 <main+0x1d1>
  4012c2:	ba 10 00 00 00       	mov    $0x10,%edx
  4012c7:	be 00 00 00 00       	mov    $0x0,%esi
  4012cc:	48 8b 3d f5 41 20 00 	mov    0x2041f5(%rip),%rdi        # 6054c8 <optarg@@GLIBC_2.2.5>
  4012d3:	e8 78 fb ff ff       	callq  400e50 <strtoul@plt>
  4012d8:	41 89 c6             	mov    %eax,%r14d
  4012db:	eb 46                	jmp    401323 <main+0x14e>
  4012dd:	ba 0a 00 00 00       	mov    $0xa,%edx
  4012e2:	be 00 00 00 00       	mov    $0x0,%esi
  4012e7:	48 8b 3d da 41 20 00 	mov    0x2041da(%rip),%rdi        # 6054c8 <optarg@@GLIBC_2.2.5>
  4012ee:	e8 bd fa ff ff       	callq  400db0 <strtol@plt>
  4012f3:	41 89 c5             	mov    %eax,%r13d
  4012f6:	eb 2b                	jmp    401323 <main+0x14e>
  4012f8:	c7 05 a6 41 20 00 00 	movl   $0x0,0x2041a6(%rip)        # 6054a8 <notify>
  4012ff:	00 00 00 
  401302:	eb 1f                	jmp    401323 <main+0x14e>
  401304:	0f be d2             	movsbl %dl,%edx
  401307:	be bf 30 40 00       	mov    $0x4030bf,%esi
  40130c:	bf 01 00 00 00       	mov    $0x1,%edi
  401311:	b8 00 00 00 00       	mov    $0x0,%eax
  401316:	e8 05 fb ff ff       	callq  400e20 <__printf_chk@plt>
  40131b:	48 8b 3b             	mov    (%rbx),%rdi
  40131e:	e8 a3 fc ff ff       	callq  400fc6 <usage>
  401323:	48 89 ea             	mov    %rbp,%rdx
  401326:	48 89 de             	mov    %rbx,%rsi
  401329:	44 89 e7             	mov    %r12d,%edi
  40132c:	e8 0f fb ff ff       	callq  400e40 <getopt@plt>
  401331:	89 c2                	mov    %eax,%edx
  401333:	3c ff                	cmp    $0xff,%al
  401335:	0f 85 22 ff ff ff    	jne    40125d <main+0x88>
  40133b:	be 00 00 00 00       	mov    $0x0,%esi
  401340:	44 89 ef             	mov    %r13d,%edi
  401343:	e8 08 fd ff ff       	callq  401050 <initialize_target>
  401348:	83 3d d9 41 20 00 00 	cmpl   $0x0,0x2041d9(%rip)        # 605528 <is_checker>
  40134f:	74 2a                	je     40137b <main+0x1a6>
  401351:	44 3b 35 c8 41 20 00 	cmp    0x2041c8(%rip),%r14d        # 605520 <authkey>
  401358:	74 21                	je     40137b <main+0x1a6>
  40135a:	44 89 f2             	mov    %r14d,%edx
  40135d:	be f8 2f 40 00       	mov    $0x402ff8,%esi
  401362:	bf 01 00 00 00       	mov    $0x1,%edi
  401367:	b8 00 00 00 00       	mov    $0x0,%eax
  40136c:	e8 af fa ff ff       	callq  400e20 <__printf_chk@plt>
  401371:	b8 00 00 00 00       	mov    $0x0,%eax
  401376:	e8 28 07 00 00       	callq  401aa3 <check_fail>
  40137b:	8b 15 a3 41 20 00    	mov    0x2041a3(%rip),%edx        # 605524 <cookie>
  401381:	be d2 30 40 00       	mov    $0x4030d2,%esi
  401386:	bf 01 00 00 00       	mov    $0x1,%edi
  40138b:	b8 00 00 00 00       	mov    $0x0,%eax
  401390:	e8 8b fa ff ff       	callq  400e20 <__printf_chk@plt>
  401395:	48 8b 3d 04 41 20 00 	mov    0x204104(%rip),%rdi        # 6054a0 <buf_offset>
  40139c:	e8 50 0c 00 00       	callq  401ff1 <stable_launch>
  4013a1:	b8 00 00 00 00       	mov    $0x0,%eax
  4013a6:	5b                   	pop    %rbx
  4013a7:	5d                   	pop    %rbp
  4013a8:	41 5c                	pop    %r12
  4013aa:	41 5d                	pop    %r13
  4013ac:	41 5e                	pop    %r14
  4013ae:	c3                   	retq   

00000000004013af <scramble>:
  4013af:	48 83 ec 38          	sub    $0x38,%rsp
  4013b3:	64 48 8b 04 25 28 00 	mov    %fs:0x28,%rax
  4013ba:	00 00 
  4013bc:	48 89 44 24 28       	mov    %rax,0x28(%rsp)
  4013c1:	31 c0                	xor    %eax,%eax
  4013c3:	eb 10                	jmp    4013d5 <scramble+0x26>
  4013c5:	69 d0 0d 82 00 00    	imul   $0x820d,%eax,%edx
  4013cb:	01 fa                	add    %edi,%edx
  4013cd:	89 c1                	mov    %eax,%ecx
  4013cf:	89 14 8c             	mov    %edx,(%rsp,%rcx,4)
  4013d2:	83 c0 01             	add    $0x1,%eax
  4013d5:	83 f8 09             	cmp    $0x9,%eax
  4013d8:	76 eb                	jbe    4013c5 <scramble+0x16>
  4013da:	8b 44 24 1c          	mov    0x1c(%rsp),%eax
  4013de:	69 c0 51 d3 00 00    	imul   $0xd351,%eax,%eax
  4013e4:	89 44 24 1c          	mov    %eax,0x1c(%rsp)
  4013e8:	8b 04 24             	mov    (%rsp),%eax
  4013eb:	69 c0 e3 82 00 00    	imul   $0x82e3,%eax,%eax
  4013f1:	89 04 24             	mov    %eax,(%rsp)
  4013f4:	8b 44 24 08          	mov    0x8(%rsp),%eax
  4013f8:	69 c0 ec df 00 00    	imul   $0xdfec,%eax,%eax
  4013fe:	89 44 24 08          	mov    %eax,0x8(%rsp)
  401402:	8b 44 24 20          	mov    0x20(%rsp),%eax
  401406:	69 c0 0d 8a 00 00    	imul   $0x8a0d,%eax,%eax
  40140c:	89 44 24 20          	mov    %eax,0x20(%rsp)
  401410:	8b 44 24 14          	mov    0x14(%rsp),%eax
  401414:	69 c0 b0 62 00 00    	imul   $0x62b0,%eax,%eax
  40141a:	89 44 24 14          	mov    %eax,0x14(%rsp)
  40141e:	8b 44 24 18          	mov    0x18(%rsp),%eax
  401422:	69 c0 af fc 00 00    	imul   $0xfcaf,%eax,%eax
  401428:	89 44 24 18          	mov    %eax,0x18(%rsp)
  40142c:	8b 44 24 10          	mov    0x10(%rsp),%eax
  401430:	69 c0 19 45 00 00    	imul   $0x4519,%eax,%eax
  401436:	89 44 24 10          	mov    %eax,0x10(%rsp)
  40143a:	8b 44 24 0c          	mov    0xc(%rsp),%eax
  40143e:	69 c0 d4 a3 00 00    	imul   $0xa3d4,%eax,%eax
  401444:	89 44 24 0c          	mov    %eax,0xc(%rsp)
  401448:	8b 44 24 18          	mov    0x18(%rsp),%eax
  40144c:	69 c0 68 91 00 00    	imul   $0x9168,%eax,%eax
  401452:	89 44 24 18          	mov    %eax,0x18(%rsp)
  401456:	8b 44 24 04          	mov    0x4(%rsp),%eax
  40145a:	69 c0 01 51 00 00    	imul   $0x5101,%eax,%eax
  401460:	89 44 24 04          	mov    %eax,0x4(%rsp)
  401464:	8b 44 24 1c          	mov    0x1c(%rsp),%eax
  401468:	69 c0 a3 5a 00 00    	imul   $0x5aa3,%eax,%eax
  40146e:	89 44 24 1c          	mov    %eax,0x1c(%rsp)
  401472:	8b 44 24 1c          	mov    0x1c(%rsp),%eax
  401476:	69 c0 24 a7 00 00    	imul   $0xa724,%eax,%eax
  40147c:	89 44 24 1c          	mov    %eax,0x1c(%rsp)
  401480:	8b 44 24 18          	mov    0x18(%rsp),%eax
  401484:	69 c0 0f 41 00 00    	imul   $0x410f,%eax,%eax
  40148a:	89 44 24 18          	mov    %eax,0x18(%rsp)
  40148e:	8b 44 24 1c          	mov    0x1c(%rsp),%eax
  401492:	69 c0 2f b8 00 00    	imul   $0xb82f,%eax,%eax
  401498:	89 44 24 1c          	mov    %eax,0x1c(%rsp)
  40149c:	8b 44 24 0c          	mov    0xc(%rsp),%eax
  4014a0:	69 c0 54 48 00 00    	imul   $0x4854,%eax,%eax
  4014a6:	89 44 24 0c          	mov    %eax,0xc(%rsp)
  4014aa:	8b 44 24 20          	mov    0x20(%rsp),%eax
  4014ae:	69 c0 91 56 00 00    	imul   $0x5691,%eax,%eax
  4014b4:	89 44 24 20          	mov    %eax,0x20(%rsp)
  4014b8:	8b 44 24 18          	mov    0x18(%rsp),%eax
  4014bc:	69 c0 d3 8a 00 00    	imul   $0x8ad3,%eax,%eax
  4014c2:	89 44 24 18          	mov    %eax,0x18(%rsp)
  4014c6:	8b 44 24 1c          	mov    0x1c(%rsp),%eax
  4014ca:	69 c0 78 a4 00 00    	imul   $0xa478,%eax,%eax
  4014d0:	89 44 24 1c          	mov    %eax,0x1c(%rsp)
  4014d4:	8b 44 24 24          	mov    0x24(%rsp),%eax
  4014d8:	69 c0 43 1f 00 00    	imul   $0x1f43,%eax,%eax
  4014de:	89 44 24 24          	mov    %eax,0x24(%rsp)
  4014e2:	8b 44 24 1c          	mov    0x1c(%rsp),%eax
  4014e6:	69 c0 dd 5b 00 00    	imul   $0x5bdd,%eax,%eax
  4014ec:	89 44 24 1c          	mov    %eax,0x1c(%rsp)
  4014f0:	8b 44 24 20          	mov    0x20(%rsp),%eax
  4014f4:	69 c0 1e 92 00 00    	imul   $0x921e,%eax,%eax
  4014fa:	89 44 24 20          	mov    %eax,0x20(%rsp)
  4014fe:	8b 44 24 24          	mov    0x24(%rsp),%eax
  401502:	69 c0 cd b9 00 00    	imul   $0xb9cd,%eax,%eax
  401508:	89 44 24 24          	mov    %eax,0x24(%rsp)
  40150c:	8b 44 24 1c          	mov    0x1c(%rsp),%eax
  401510:	69 c0 22 1b 00 00    	imul   $0x1b22,%eax,%eax
  401516:	89 44 24 1c          	mov    %eax,0x1c(%rsp)
  40151a:	8b 04 24             	mov    (%rsp),%eax
  40151d:	69 c0 6b 44 00 00    	imul   $0x446b,%eax,%eax
  401523:	89 04 24             	mov    %eax,(%rsp)
  401526:	8b 44 24 20          	mov    0x20(%rsp),%eax
  40152a:	69 c0 f2 f0 00 00    	imul   $0xf0f2,%eax,%eax
  401530:	89 44 24 20          	mov    %eax,0x20(%rsp)
  401534:	8b 44 24 14          	mov    0x14(%rsp),%eax
  401538:	69 c0 24 42 00 00    	imul   $0x4224,%eax,%eax
  40153e:	89 44 24 14          	mov    %eax,0x14(%rsp)
  401542:	8b 44 24 08          	mov    0x8(%rsp),%eax
  401546:	69 c0 fe 5a 00 00    	imul   $0x5afe,%eax,%eax
  40154c:	89 44 24 08          	mov    %eax,0x8(%rsp)
  401550:	8b 44 24 14          	mov    0x14(%rsp),%eax
  401554:	69 c0 26 4c 00 00    	imul   $0x4c26,%eax,%eax
  40155a:	89 44 24 14          	mov    %eax,0x14(%rsp)
  40155e:	8b 04 24             	mov    (%rsp),%eax
  401561:	69 c0 fa 38 00 00    	imul   $0x38fa,%eax,%eax
  401567:	89 04 24             	mov    %eax,(%rsp)
  40156a:	8b 44 24 20          	mov    0x20(%rsp),%eax
  40156e:	69 c0 90 70 00 00    	imul   $0x7090,%eax,%eax
  401574:	89 44 24 20          	mov    %eax,0x20(%rsp)
  401578:	8b 44 24 04          	mov    0x4(%rsp),%eax
  40157c:	69 c0 e5 6c 00 00    	imul   $0x6ce5,%eax,%eax
  401582:	89 44 24 04          	mov    %eax,0x4(%rsp)
  401586:	8b 04 24             	mov    (%rsp),%eax
  401589:	69 c0 f4 9c 00 00    	imul   $0x9cf4,%eax,%eax
  40158f:	89 04 24             	mov    %eax,(%rsp)
  401592:	8b 44 24 18          	mov    0x18(%rsp),%eax
  401596:	69 c0 96 a0 00 00    	imul   $0xa096,%eax,%eax
  40159c:	89 44 24 18          	mov    %eax,0x18(%rsp)
  4015a0:	8b 44 24 24          	mov    0x24(%rsp),%eax
  4015a4:	69 c0 77 62 00 00    	imul   $0x6277,%eax,%eax
  4015aa:	89 44 24 24          	mov    %eax,0x24(%rsp)
  4015ae:	8b 44 24 08          	mov    0x8(%rsp),%eax
  4015b2:	69 c0 f1 6f 00 00    	imul   $0x6ff1,%eax,%eax
  4015b8:	89 44 24 08          	mov    %eax,0x8(%rsp)
  4015bc:	8b 44 24 04          	mov    0x4(%rsp),%eax
  4015c0:	69 c0 cc 41 00 00    	imul   $0x41cc,%eax,%eax
  4015c6:	89 44 24 04          	mov    %eax,0x4(%rsp)
  4015ca:	8b 44 24 08          	mov    0x8(%rsp),%eax
  4015ce:	69 c0 e1 16 00 00    	imul   $0x16e1,%eax,%eax
  4015d4:	89 44 24 08          	mov    %eax,0x8(%rsp)
  4015d8:	8b 44 24 1c          	mov    0x1c(%rsp),%eax
  4015dc:	69 c0 47 d9 00 00    	imul   $0xd947,%eax,%eax
  4015e2:	89 44 24 1c          	mov    %eax,0x1c(%rsp)
  4015e6:	8b 44 24 18          	mov    0x18(%rsp),%eax
  4015ea:	69 c0 3b 59 00 00    	imul   $0x593b,%eax,%eax
  4015f0:	89 44 24 18          	mov    %eax,0x18(%rsp)
  4015f4:	8b 44 24 1c          	mov    0x1c(%rsp),%eax
  4015f8:	69 c0 8e de 00 00    	imul   $0xde8e,%eax,%eax
  4015fe:	89 44 24 1c          	mov    %eax,0x1c(%rsp)
  401602:	8b 44 24 08          	mov    0x8(%rsp),%eax
  401606:	69 c0 1e b3 00 00    	imul   $0xb31e,%eax,%eax
  40160c:	89 44 24 08          	mov    %eax,0x8(%rsp)
  401610:	8b 44 24 08          	mov    0x8(%rsp),%eax
  401614:	69 c0 c3 95 00 00    	imul   $0x95c3,%eax,%eax
  40161a:	89 44 24 08          	mov    %eax,0x8(%rsp)
  40161e:	8b 44 24 24          	mov    0x24(%rsp),%eax
  401622:	69 c0 fa 09 00 00    	imul   $0x9fa,%eax,%eax
  401628:	89 44 24 24          	mov    %eax,0x24(%rsp)
  40162c:	8b 44 24 18          	mov    0x18(%rsp),%eax
  401630:	69 c0 29 aa 00 00    	imul   $0xaa29,%eax,%eax
  401636:	89 44 24 18          	mov    %eax,0x18(%rsp)
  40163a:	8b 44 24 08          	mov    0x8(%rsp),%eax
  40163e:	69 c0 3f e6 00 00    	imul   $0xe63f,%eax,%eax
  401644:	89 44 24 08          	mov    %eax,0x8(%rsp)
  401648:	8b 44 24 24          	mov    0x24(%rsp),%eax
  40164c:	69 c0 42 c4 00 00    	imul   $0xc442,%eax,%eax
  401652:	89 44 24 24          	mov    %eax,0x24(%rsp)
  401656:	8b 44 24 0c          	mov    0xc(%rsp),%eax
  40165a:	69 c0 db e1 00 00    	imul   $0xe1db,%eax,%eax
  401660:	89 44 24 0c          	mov    %eax,0xc(%rsp)
  401664:	8b 44 24 0c          	mov    0xc(%rsp),%eax
  401668:	69 c0 dd 4a 00 00    	imul   $0x4add,%eax,%eax
  40166e:	89 44 24 0c          	mov    %eax,0xc(%rsp)
  401672:	8b 44 24 1c          	mov    0x1c(%rsp),%eax
  401676:	69 c0 a3 a2 00 00    	imul   $0xa2a3,%eax,%eax
  40167c:	89 44 24 1c          	mov    %eax,0x1c(%rsp)
  401680:	8b 44 24 1c          	mov    0x1c(%rsp),%eax
  401684:	69 c0 4a 42 00 00    	imul   $0x424a,%eax,%eax
  40168a:	89 44 24 1c          	mov    %eax,0x1c(%rsp)
  40168e:	8b 44 24 0c          	mov    0xc(%rsp),%eax
  401692:	69 c0 a9 6b 00 00    	imul   $0x6ba9,%eax,%eax
  401698:	89 44 24 0c          	mov    %eax,0xc(%rsp)
  40169c:	8b 44 24 18          	mov    0x18(%rsp),%eax
  4016a0:	69 c0 a4 14 00 00    	imul   $0x14a4,%eax,%eax
  4016a6:	89 44 24 18          	mov    %eax,0x18(%rsp)
  4016aa:	8b 44 24 24          	mov    0x24(%rsp),%eax
  4016ae:	69 c0 b1 7f 00 00    	imul   $0x7fb1,%eax,%eax
  4016b4:	89 44 24 24          	mov    %eax,0x24(%rsp)
  4016b8:	8b 04 24             	mov    (%rsp),%eax
  4016bb:	69 c0 8e b4 00 00    	imul   $0xb48e,%eax,%eax
  4016c1:	89 04 24             	mov    %eax,(%rsp)
  4016c4:	8b 44 24 08          	mov    0x8(%rsp),%eax
  4016c8:	69 c0 9d 0b 00 00    	imul   $0xb9d,%eax,%eax
  4016ce:	89 44 24 08          	mov    %eax,0x8(%rsp)
  4016d2:	8b 44 24 08          	mov    0x8(%rsp),%eax
  4016d6:	69 c0 1a 23 00 00    	imul   $0x231a,%eax,%eax
  4016dc:	89 44 24 08          	mov    %eax,0x8(%rsp)
  4016e0:	8b 44 24 14          	mov    0x14(%rsp),%eax
  4016e4:	69 c0 ce b3 00 00    	imul   $0xb3ce,%eax,%eax
  4016ea:	89 44 24 14          	mov    %eax,0x14(%rsp)
  4016ee:	8b 04 24             	mov    (%rsp),%eax
  4016f1:	69 c0 d8 cc 00 00    	imul   $0xccd8,%eax,%eax
  4016f7:	89 04 24             	mov    %eax,(%rsp)
  4016fa:	8b 44 24 08          	mov    0x8(%rsp),%eax
  4016fe:	69 c0 c6 9a 00 00    	imul   $0x9ac6,%eax,%eax
  401704:	89 44 24 08          	mov    %eax,0x8(%rsp)
  401708:	8b 04 24             	mov    (%rsp),%eax
  40170b:	69 c0 bc 00 00 00    	imul   $0xbc,%eax,%eax
  401711:	89 04 24             	mov    %eax,(%rsp)
  401714:	8b 44 24 10          	mov    0x10(%rsp),%eax
  401718:	69 c0 bc 91 00 00    	imul   $0x91bc,%eax,%eax
  40171e:	89 44 24 10          	mov    %eax,0x10(%rsp)
  401722:	8b 44 24 04          	mov    0x4(%rsp),%eax
  401726:	69 c0 2b d4 00 00    	imul   $0xd42b,%eax,%eax
  40172c:	89 44 24 04          	mov    %eax,0x4(%rsp)
  401730:	8b 04 24             	mov    (%rsp),%eax
  401733:	69 c0 35 26 00 00    	imul   $0x2635,%eax,%eax
  401739:	89 04 24             	mov    %eax,(%rsp)
  40173c:	8b 44 24 24          	mov    0x24(%rsp),%eax
  401740:	69 c0 09 f6 00 00    	imul   $0xf609,%eax,%eax
  401746:	89 44 24 24          	mov    %eax,0x24(%rsp)
  40174a:	8b 44 24 0c          	mov    0xc(%rsp),%eax
  40174e:	69 c0 5d cc 00 00    	imul   $0xcc5d,%eax,%eax
  401754:	89 44 24 0c          	mov    %eax,0xc(%rsp)
  401758:	8b 44 24 04          	mov    0x4(%rsp),%eax
  40175c:	69 c0 6e db 00 00    	imul   $0xdb6e,%eax,%eax
  401762:	89 44 24 04          	mov    %eax,0x4(%rsp)
  401766:	8b 44 24 10          	mov    0x10(%rsp),%eax
  40176a:	69 c0 6a bc 00 00    	imul   $0xbc6a,%eax,%eax
  401770:	89 44 24 10          	mov    %eax,0x10(%rsp)
  401774:	8b 44 24 14          	mov    0x14(%rsp),%eax
  401778:	69 c0 91 ba 00 00    	imul   $0xba91,%eax,%eax
  40177e:	89 44 24 14          	mov    %eax,0x14(%rsp)
  401782:	8b 44 24 04          	mov    0x4(%rsp),%eax
  401786:	69 c0 fe dd 00 00    	imul   $0xddfe,%eax,%eax
  40178c:	89 44 24 04          	mov    %eax,0x4(%rsp)
  401790:	8b 44 24 0c          	mov    0xc(%rsp),%eax
  401794:	69 c0 08 15 00 00    	imul   $0x1508,%eax,%eax
  40179a:	89 44 24 0c          	mov    %eax,0xc(%rsp)
  40179e:	8b 44 24 20          	mov    0x20(%rsp),%eax
  4017a2:	69 c0 3b 02 00 00    	imul   $0x23b,%eax,%eax
  4017a8:	89 44 24 20          	mov    %eax,0x20(%rsp)
  4017ac:	8b 44 24 24          	mov    0x24(%rsp),%eax
  4017b0:	69 c0 57 a8 00 00    	imul   $0xa857,%eax,%eax
  4017b6:	89 44 24 24          	mov    %eax,0x24(%rsp)
  4017ba:	8b 04 24             	mov    (%rsp),%eax
  4017bd:	69 c0 ff f0 00 00    	imul   $0xf0ff,%eax,%eax
  4017c3:	89 04 24             	mov    %eax,(%rsp)
  4017c6:	8b 44 24 0c          	mov    0xc(%rsp),%eax
  4017ca:	69 c0 d1 73 00 00    	imul   $0x73d1,%eax,%eax
  4017d0:	89 44 24 0c          	mov    %eax,0xc(%rsp)
  4017d4:	8b 44 24 24          	mov    0x24(%rsp),%eax
  4017d8:	69 c0 32 ec 00 00    	imul   $0xec32,%eax,%eax
  4017de:	89 44 24 24          	mov    %eax,0x24(%rsp)
  4017e2:	8b 44 24 08          	mov    0x8(%rsp),%eax
  4017e6:	69 c0 cb 0c 00 00    	imul   $0xccb,%eax,%eax
  4017ec:	89 44 24 08          	mov    %eax,0x8(%rsp)
  4017f0:	8b 44 24 10          	mov    0x10(%rsp),%eax
  4017f4:	69 c0 8c 39 00 00    	imul   $0x398c,%eax,%eax
  4017fa:	89 44 24 10          	mov    %eax,0x10(%rsp)
  4017fe:	8b 44 24 14          	mov    0x14(%rsp),%eax
  401802:	69 c0 85 f1 00 00    	imul   $0xf185,%eax,%eax
  401808:	89 44 24 14          	mov    %eax,0x14(%rsp)
  40180c:	8b 14 24             	mov    (%rsp),%edx
  40180f:	89 d0                	mov    %edx,%eax
  401811:	c1 e0 10             	shl    $0x10,%eax
  401814:	29 d0                	sub    %edx,%eax
  401816:	89 04 24             	mov    %eax,(%rsp)
  401819:	ba 00 00 00 00       	mov    $0x0,%edx
  40181e:	b8 00 00 00 00       	mov    $0x0,%eax
  401823:	eb 0a                	jmp    40182f <scramble+0x480>
  401825:	89 d1                	mov    %edx,%ecx
  401827:	8b 0c 8c             	mov    (%rsp,%rcx,4),%ecx
  40182a:	01 c8                	add    %ecx,%eax
  40182c:	83 c2 01             	add    $0x1,%edx
  40182f:	83 fa 09             	cmp    $0x9,%edx
  401832:	76 f1                	jbe    401825 <scramble+0x476>
  401834:	48 8b 74 24 28       	mov    0x28(%rsp),%rsi
  401839:	64 48 33 34 25 28 00 	xor    %fs:0x28,%rsi
  401840:	00 00 
  401842:	74 05                	je     401849 <scramble+0x49a>
  401844:	e8 c7 f4 ff ff       	callq  400d10 <__stack_chk_fail@plt>
  401849:	48 83 c4 38          	add    $0x38,%rsp
  40184d:	c3                   	retq   

000000000040184e <getbuf>:
  40184e:	48 83 ec 38          	sub    $0x38,%rsp
  401852:	48 89 e7             	mov    %rsp,%rdi
  401855:	e8 7e 02 00 00       	callq  401ad8 <Gets>
  40185a:	b8 01 00 00 00       	mov    $0x1,%eax
  40185f:	48 83 c4 38          	add    $0x38,%rsp
  401863:	c3                   	retq   

0000000000401864 <touch1>:
  401864:	48 83 ec 08          	sub    $0x8,%rsp
  401868:	c7 05 aa 3c 20 00 01 	movl   $0x1,0x203caa(%rip)        # 60551c <vlevel>
  40186f:	00 00 00 
  401872:	bf 46 32 40 00       	mov    $0x403246,%edi
  401877:	e8 74 f4 ff ff       	callq  400cf0 <puts@plt>
  40187c:	bf 01 00 00 00       	mov    $0x1,%edi
  401881:	e8 97 04 00 00       	callq  401d1d <validate>
  401886:	bf 00 00 00 00       	mov    $0x0,%edi
  40188b:	e8 e0 f5 ff ff       	callq  400e70 <exit@plt>

0000000000401890 <touch2>:
  401890:	48 83 ec 08          	sub    $0x8,%rsp
  401894:	89 fa                	mov    %edi,%edx
  401896:	c7 05 7c 3c 20 00 02 	movl   $0x2,0x203c7c(%rip)        # 60551c <vlevel>
  40189d:	00 00 00 
  4018a0:	39 3d 7e 3c 20 00    	cmp    %edi,0x203c7e(%rip)        # 605524 <cookie>
  4018a6:	75 20                	jne    4018c8 <touch2+0x38>
  4018a8:	be 68 32 40 00       	mov    $0x403268,%esi
  4018ad:	bf 01 00 00 00       	mov    $0x1,%edi
  4018b2:	b8 00 00 00 00       	mov    $0x0,%eax
  4018b7:	e8 64 f5 ff ff       	callq  400e20 <__printf_chk@plt>
  4018bc:	bf 02 00 00 00       	mov    $0x2,%edi
  4018c1:	e8 57 04 00 00       	callq  401d1d <validate>
  4018c6:	eb 1e                	jmp    4018e6 <touch2+0x56>
  4018c8:	be 90 32 40 00       	mov    $0x403290,%esi
  4018cd:	bf 01 00 00 00       	mov    $0x1,%edi
  4018d2:	b8 00 00 00 00       	mov    $0x0,%eax
  4018d7:	e8 44 f5 ff ff       	callq  400e20 <__printf_chk@plt>
  4018dc:	bf 02 00 00 00       	mov    $0x2,%edi
  4018e1:	e8 f9 04 00 00       	callq  401ddf <fail>
  4018e6:	bf 00 00 00 00       	mov    $0x0,%edi
  4018eb:	e8 80 f5 ff ff       	callq  400e70 <exit@plt>

00000000004018f0 <hexmatch>:
  4018f0:	41 54                	push   %r12
  4018f2:	55                   	push   %rbp
  4018f3:	53                   	push   %rbx
  4018f4:	48 83 c4 80          	add    $0xffffffffffffff80,%rsp
  4018f8:	89 fd                	mov    %edi,%ebp
  4018fa:	48 89 f3             	mov    %rsi,%rbx
  4018fd:	64 48 8b 04 25 28 00 	mov    %fs:0x28,%rax
  401904:	00 00 
  401906:	48 89 44 24 78       	mov    %rax,0x78(%rsp)
  40190b:	31 c0                	xor    %eax,%eax
  40190d:	e8 ce f4 ff ff       	callq  400de0 <random@plt>
  401912:	48 89 c1             	mov    %rax,%rcx
  401915:	48 ba 0b d7 a3 70 3d 	movabs $0xa3d70a3d70a3d70b,%rdx
  40191c:	0a d7 a3 
  40191f:	48 f7 ea             	imul   %rdx
  401922:	48 01 ca             	add    %rcx,%rdx
  401925:	48 c1 fa 06          	sar    $0x6,%rdx
  401929:	48 89 c8             	mov    %rcx,%rax
  40192c:	48 c1 f8 3f          	sar    $0x3f,%rax
  401930:	48 29 c2             	sub    %rax,%rdx
  401933:	48 8d 04 92          	lea    (%rdx,%rdx,4),%rax
  401937:	48 8d 14 80          	lea    (%rax,%rax,4),%rdx
  40193b:	48 8d 04 95 00 00 00 	lea    0x0(,%rdx,4),%rax
  401942:	00 
  401943:	48 29 c1             	sub    %rax,%rcx
  401946:	4c 8d 24 0c          	lea    (%rsp,%rcx,1),%r12
  40194a:	41 89 e8             	mov    %ebp,%r8d
  40194d:	b9 63 32 40 00       	mov    $0x403263,%ecx
  401952:	48 c7 c2 ff ff ff ff 	mov    $0xffffffffffffffff,%rdx
  401959:	be 01 00 00 00       	mov    $0x1,%esi
  40195e:	4c 89 e7             	mov    %r12,%rdi
  401961:	b8 00 00 00 00       	mov    $0x0,%eax
  401966:	e8 35 f5 ff ff       	callq  400ea0 <__sprintf_chk@plt>
  40196b:	ba 09 00 00 00       	mov    $0x9,%edx
  401970:	4c 89 e6             	mov    %r12,%rsi
  401973:	48 89 df             	mov    %rbx,%rdi
  401976:	e8 55 f3 ff ff       	callq  400cd0 <strncmp@plt>
  40197b:	85 c0                	test   %eax,%eax
  40197d:	0f 94 c0             	sete   %al
  401980:	48 8b 5c 24 78       	mov    0x78(%rsp),%rbx
  401985:	64 48 33 1c 25 28 00 	xor    %fs:0x28,%rbx
  40198c:	00 00 
  40198e:	74 05                	je     401995 <hexmatch+0xa5>
  401990:	e8 7b f3 ff ff       	callq  400d10 <__stack_chk_fail@plt>
  401995:	0f b6 c0             	movzbl %al,%eax
  401998:	48 83 ec 80          	sub    $0xffffffffffffff80,%rsp
  40199c:	5b                   	pop    %rbx
  40199d:	5d                   	pop    %rbp
  40199e:	41 5c                	pop    %r12
  4019a0:	c3                   	retq   

00000000004019a1 <touch3>:
  4019a1:	53                   	push   %rbx
  4019a2:	48 89 fb             	mov    %rdi,%rbx
  4019a5:	c7 05 6d 3b 20 00 03 	movl   $0x3,0x203b6d(%rip)        # 60551c <vlevel>
  4019ac:	00 00 00 
  4019af:	48 89 fe             	mov    %rdi,%rsi
  4019b2:	8b 3d 6c 3b 20 00    	mov    0x203b6c(%rip),%edi        # 605524 <cookie>
  4019b8:	e8 33 ff ff ff       	callq  4018f0 <hexmatch>
  4019bd:	85 c0                	test   %eax,%eax
  4019bf:	74 23                	je     4019e4 <touch3+0x43>
  4019c1:	48 89 da             	mov    %rbx,%rdx
  4019c4:	be b8 32 40 00       	mov    $0x4032b8,%esi
  4019c9:	bf 01 00 00 00       	mov    $0x1,%edi
  4019ce:	b8 00 00 00 00       	mov    $0x0,%eax
  4019d3:	e8 48 f4 ff ff       	callq  400e20 <__printf_chk@plt>
  4019d8:	bf 03 00 00 00       	mov    $0x3,%edi
  4019dd:	e8 3b 03 00 00       	callq  401d1d <validate>
  4019e2:	eb 21                	jmp    401a05 <touch3+0x64>
  4019e4:	48 89 da             	mov    %rbx,%rdx
  4019e7:	be e0 32 40 00       	mov    $0x4032e0,%esi
  4019ec:	bf 01 00 00 00       	mov    $0x1,%edi
  4019f1:	b8 00 00 00 00       	mov    $0x0,%eax
  4019f6:	e8 25 f4 ff ff       	callq  400e20 <__printf_chk@plt>
  4019fb:	bf 03 00 00 00       	mov    $0x3,%edi
  401a00:	e8 da 03 00 00       	callq  401ddf <fail>
  401a05:	bf 00 00 00 00       	mov    $0x0,%edi
  401a0a:	e8 61 f4 ff ff       	callq  400e70 <exit@plt>

0000000000401a0f <test>:
  401a0f:	48 83 ec 08          	sub    $0x8,%rsp
  401a13:	b8 00 00 00 00       	mov    $0x0,%eax
  401a18:	e8 31 fe ff ff       	callq  40184e <getbuf>
  401a1d:	89 c2                	mov    %eax,%edx
  401a1f:	be 08 33 40 00       	mov    $0x403308,%esi
  401a24:	bf 01 00 00 00       	mov    $0x1,%edi
  401a29:	b8 00 00 00 00       	mov    $0x0,%eax
  401a2e:	e8 ed f3 ff ff       	callq  400e20 <__printf_chk@plt>
  401a33:	48 83 c4 08          	add    $0x8,%rsp
  401a37:	c3                   	retq   

0000000000401a38 <save_char>:
  401a38:	8b 05 06 47 20 00    	mov    0x204706(%rip),%eax        # 606144 <gets_cnt>
  401a3e:	3d ff 03 00 00       	cmp    $0x3ff,%eax
  401a43:	7f 49                	jg     401a8e <save_char+0x56>
  401a45:	8d 14 40             	lea    (%rax,%rax,2),%edx
  401a48:	89 f9                	mov    %edi,%ecx
  401a4a:	c0 e9 04             	shr    $0x4,%cl
  401a4d:	83 e1 0f             	and    $0xf,%ecx
  401a50:	0f b6 b1 30 36 40 00 	movzbl 0x403630(%rcx),%esi
  401a57:	48 63 ca             	movslq %edx,%rcx
  401a5a:	40 88 b1 40 55 60 00 	mov    %sil,0x605540(%rcx)
  401a61:	8d 4a 01             	lea    0x1(%rdx),%ecx
  401a64:	83 e7 0f             	and    $0xf,%edi
  401a67:	0f b6 b7 30 36 40 00 	movzbl 0x403630(%rdi),%esi
  401a6e:	48 63 c9             	movslq %ecx,%rcx
  401a71:	40 88 b1 40 55 60 00 	mov    %sil,0x605540(%rcx)
  401a78:	83 c2 02             	add    $0x2,%edx
  401a7b:	48 63 d2             	movslq %edx,%rdx
  401a7e:	c6 82 40 55 60 00 20 	movb   $0x20,0x605540(%rdx)
  401a85:	83 c0 01             	add    $0x1,%eax
  401a88:	89 05 b6 46 20 00    	mov    %eax,0x2046b6(%rip)        # 606144 <gets_cnt>
  401a8e:	f3 c3                	repz retq 

0000000000401a90 <save_term>:
  401a90:	8b 05 ae 46 20 00    	mov    0x2046ae(%rip),%eax        # 606144 <gets_cnt>
  401a96:	8d 04 40             	lea    (%rax,%rax,2),%eax
  401a99:	48 98                	cltq   
  401a9b:	c6 80 40 55 60 00 00 	movb   $0x0,0x605540(%rax)
  401aa2:	c3                   	retq   

0000000000401aa3 <check_fail>:
  401aa3:	48 83 ec 08          	sub    $0x8,%rsp
  401aa7:	0f be 15 9a 46 20 00 	movsbl 0x20469a(%rip),%edx        # 606148 <target_prefix>
  401aae:	41 b8 40 55 60 00    	mov    $0x605540,%r8d
  401ab4:	8b 0d 5e 3a 20 00    	mov    0x203a5e(%rip),%ecx        # 605518 <check_level>
  401aba:	be 2b 33 40 00       	mov    $0x40332b,%esi
  401abf:	bf 01 00 00 00       	mov    $0x1,%edi
  401ac4:	b8 00 00 00 00       	mov    $0x0,%eax
  401ac9:	e8 52 f3 ff ff       	callq  400e20 <__printf_chk@plt>
  401ace:	bf 01 00 00 00       	mov    $0x1,%edi
  401ad3:	e8 98 f3 ff ff       	callq  400e70 <exit@plt>

0000000000401ad8 <Gets>:
  401ad8:	41 54                	push   %r12
  401ada:	55                   	push   %rbp
  401adb:	53                   	push   %rbx
  401adc:	49 89 fc             	mov    %rdi,%r12
  401adf:	c7 05 5b 46 20 00 00 	movl   $0x0,0x20465b(%rip)        # 606144 <gets_cnt>
  401ae6:	00 00 00 
  401ae9:	48 89 fb             	mov    %rdi,%rbx
  401aec:	eb 11                	jmp    401aff <Gets+0x27>
  401aee:	48 8d 6b 01          	lea    0x1(%rbx),%rbp
  401af2:	88 03                	mov    %al,(%rbx)
  401af4:	0f b6 f8             	movzbl %al,%edi
  401af7:	e8 3c ff ff ff       	callq  401a38 <save_char>
  401afc:	48 89 eb             	mov    %rbp,%rbx
  401aff:	48 8b 3d 0a 3a 20 00 	mov    0x203a0a(%rip),%rdi        # 605510 <infile>
  401b06:	e8 e5 f2 ff ff       	callq  400df0 <_IO_getc@plt>
  401b0b:	83 f8 ff             	cmp    $0xffffffff,%eax
  401b0e:	74 05                	je     401b15 <Gets+0x3d>
  401b10:	83 f8 0a             	cmp    $0xa,%eax
  401b13:	75 d9                	jne    401aee <Gets+0x16>
  401b15:	c6 03 00             	movb   $0x0,(%rbx)
  401b18:	b8 00 00 00 00       	mov    $0x0,%eax
  401b1d:	e8 6e ff ff ff       	callq  401a90 <save_term>
  401b22:	4c 89 e0             	mov    %r12,%rax
  401b25:	5b                   	pop    %rbx
  401b26:	5d                   	pop    %rbp
  401b27:	41 5c                	pop    %r12
  401b29:	c3                   	retq   

0000000000401b2a <notify_server>:
  401b2a:	53                   	push   %rbx
  401b2b:	48 81 ec 10 40 00 00 	sub    $0x4010,%rsp
  401b32:	64 48 8b 04 25 28 00 	mov    %fs:0x28,%rax
  401b39:	00 00 
  401b3b:	48 89 84 24 08 40 00 	mov    %rax,0x4008(%rsp)
  401b42:	00 
  401b43:	31 c0                	xor    %eax,%eax
  401b45:	83 3d dc 39 20 00 00 	cmpl   $0x0,0x2039dc(%rip)        # 605528 <is_checker>
  401b4c:	0f 85 aa 01 00 00    	jne    401cfc <notify_server+0x1d2>
  401b52:	89 fb                	mov    %edi,%ebx
  401b54:	8b 05 ea 45 20 00    	mov    0x2045ea(%rip),%eax        # 606144 <gets_cnt>
  401b5a:	83 c0 64             	add    $0x64,%eax
  401b5d:	3d 00 20 00 00       	cmp    $0x2000,%eax
  401b62:	7e 1e                	jle    401b82 <notify_server+0x58>
  401b64:	be 60 34 40 00       	mov    $0x403460,%esi
  401b69:	bf 01 00 00 00       	mov    $0x1,%edi
  401b6e:	b8 00 00 00 00       	mov    $0x0,%eax
  401b73:	e8 a8 f2 ff ff       	callq  400e20 <__printf_chk@plt>
  401b78:	bf 01 00 00 00       	mov    $0x1,%edi
  401b7d:	e8 ee f2 ff ff       	callq  400e70 <exit@plt>
  401b82:	0f be 05 bf 45 20 00 	movsbl 0x2045bf(%rip),%eax        # 606148 <target_prefix>
  401b89:	83 3d 18 39 20 00 00 	cmpl   $0x0,0x203918(%rip)        # 6054a8 <notify>
  401b90:	74 08                	je     401b9a <notify_server+0x70>
  401b92:	8b 15 88 39 20 00    	mov    0x203988(%rip),%edx        # 605520 <authkey>
  401b98:	eb 05                	jmp    401b9f <notify_server+0x75>
  401b9a:	ba ff ff ff ff       	mov    $0xffffffff,%edx
  401b9f:	85 db                	test   %ebx,%ebx
  401ba1:	74 08                	je     401bab <notify_server+0x81>
  401ba3:	41 b9 41 33 40 00    	mov    $0x403341,%r9d
  401ba9:	eb 06                	jmp    401bb1 <notify_server+0x87>
  401bab:	41 b9 46 33 40 00    	mov    $0x403346,%r9d
  401bb1:	68 40 55 60 00       	pushq  $0x605540
  401bb6:	56                   	push   %rsi
  401bb7:	50                   	push   %rax
  401bb8:	52                   	push   %rdx
  401bb9:	44 8b 05 a8 35 20 00 	mov    0x2035a8(%rip),%r8d        # 605168 <target_id>
  401bc0:	b9 4b 33 40 00       	mov    $0x40334b,%ecx
  401bc5:	ba 00 20 00 00       	mov    $0x2000,%edx
  401bca:	be 01 00 00 00       	mov    $0x1,%esi
  401bcf:	48 8d 7c 24 20       	lea    0x20(%rsp),%rdi
  401bd4:	b8 00 00 00 00       	mov    $0x0,%eax
  401bd9:	e8 c2 f2 ff ff       	callq  400ea0 <__sprintf_chk@plt>
  401bde:	48 83 c4 20          	add    $0x20,%rsp
  401be2:	83 3d bf 38 20 00 00 	cmpl   $0x0,0x2038bf(%rip)        # 6054a8 <notify>
  401be9:	0f 84 81 00 00 00    	je     401c70 <notify_server+0x146>
  401bef:	4c 8d 8c 24 00 20 00 	lea    0x2000(%rsp),%r9
  401bf6:	00 
  401bf7:	41 b8 00 00 00 00    	mov    $0x0,%r8d
  401bfd:	48 89 e1             	mov    %rsp,%rcx
  401c00:	48 8b 15 69 35 20 00 	mov    0x203569(%rip),%rdx        # 605170 <lab>
  401c07:	48 8b 35 6a 35 20 00 	mov    0x20356a(%rip),%rsi        # 605178 <course>
  401c0e:	48 8b 3d 4b 35 20 00 	mov    0x20354b(%rip),%rdi        # 605160 <user_id>
  401c15:	e8 0e 11 00 00       	callq  402d28 <driver_post>
  401c1a:	85 c0                	test   %eax,%eax
  401c1c:	79 26                	jns    401c44 <notify_server+0x11a>
  401c1e:	48 8d 94 24 00 20 00 	lea    0x2000(%rsp),%rdx
  401c25:	00 
  401c26:	be 67 33 40 00       	mov    $0x403367,%esi
  401c2b:	bf 01 00 00 00       	mov    $0x1,%edi
  401c30:	b8 00 00 00 00       	mov    $0x0,%eax
  401c35:	e8 e6 f1 ff ff       	callq  400e20 <__printf_chk@plt>
  401c3a:	bf 01 00 00 00       	mov    $0x1,%edi
  401c3f:	e8 2c f2 ff ff       	callq  400e70 <exit@plt>
  401c44:	85 db                	test   %ebx,%ebx
  401c46:	74 19                	je     401c61 <notify_server+0x137>
  401c48:	bf 90 34 40 00       	mov    $0x403490,%edi
  401c4d:	e8 9e f0 ff ff       	callq  400cf0 <puts@plt>
  401c52:	bf 73 33 40 00       	mov    $0x403373,%edi
  401c57:	e8 94 f0 ff ff       	callq  400cf0 <puts@plt>
  401c5c:	e9 9b 00 00 00       	jmpq   401cfc <notify_server+0x1d2>
  401c61:	bf 7d 33 40 00       	mov    $0x40337d,%edi
  401c66:	e8 85 f0 ff ff       	callq  400cf0 <puts@plt>
  401c6b:	e9 8c 00 00 00       	jmpq   401cfc <notify_server+0x1d2>
  401c70:	85 db                	test   %ebx,%ebx
  401c72:	74 07                	je     401c7b <notify_server+0x151>
  401c74:	ba 41 33 40 00       	mov    $0x403341,%edx
  401c79:	eb 05                	jmp    401c80 <notify_server+0x156>
  401c7b:	ba 46 33 40 00       	mov    $0x403346,%edx
  401c80:	be c8 34 40 00       	mov    $0x4034c8,%esi
  401c85:	bf 01 00 00 00       	mov    $0x1,%edi
  401c8a:	b8 00 00 00 00       	mov    $0x0,%eax
  401c8f:	e8 8c f1 ff ff       	callq  400e20 <__printf_chk@plt>
  401c94:	48 8b 15 c5 34 20 00 	mov    0x2034c5(%rip),%rdx        # 605160 <user_id>
  401c9b:	be 84 33 40 00       	mov    $0x403384,%esi
  401ca0:	bf 01 00 00 00       	mov    $0x1,%edi
  401ca5:	b8 00 00 00 00       	mov    $0x0,%eax
  401caa:	e8 71 f1 ff ff       	callq  400e20 <__printf_chk@plt>
  401caf:	48 8b 15 c2 34 20 00 	mov    0x2034c2(%rip),%rdx        # 605178 <course>
  401cb6:	be 91 33 40 00       	mov    $0x403391,%esi
  401cbb:	bf 01 00 00 00       	mov    $0x1,%edi
  401cc0:	b8 00 00 00 00       	mov    $0x0,%eax
  401cc5:	e8 56 f1 ff ff       	callq  400e20 <__printf_chk@plt>
  401cca:	48 8b 15 9f 34 20 00 	mov    0x20349f(%rip),%rdx        # 605170 <lab>
  401cd1:	be 9d 33 40 00       	mov    $0x40339d,%esi
  401cd6:	bf 01 00 00 00       	mov    $0x1,%edi
  401cdb:	b8 00 00 00 00       	mov    $0x0,%eax
  401ce0:	e8 3b f1 ff ff       	callq  400e20 <__printf_chk@plt>
  401ce5:	48 89 e2             	mov    %rsp,%rdx
  401ce8:	be a6 33 40 00       	mov    $0x4033a6,%esi
  401ced:	bf 01 00 00 00       	mov    $0x1,%edi
  401cf2:	b8 00 00 00 00       	mov    $0x0,%eax
  401cf7:	e8 24 f1 ff ff       	callq  400e20 <__printf_chk@plt>
  401cfc:	48 8b 84 24 08 40 00 	mov    0x4008(%rsp),%rax
  401d03:	00 
  401d04:	64 48 33 04 25 28 00 	xor    %fs:0x28,%rax
  401d0b:	00 00 
  401d0d:	74 05                	je     401d14 <notify_server+0x1ea>
  401d0f:	e8 fc ef ff ff       	callq  400d10 <__stack_chk_fail@plt>
  401d14:	48 81 c4 10 40 00 00 	add    $0x4010,%rsp
  401d1b:	5b                   	pop    %rbx
  401d1c:	c3                   	retq   

0000000000401d1d <validate>:
  401d1d:	53                   	push   %rbx
  401d1e:	89 fb                	mov    %edi,%ebx
  401d20:	83 3d 01 38 20 00 00 	cmpl   $0x0,0x203801(%rip)        # 605528 <is_checker>
  401d27:	74 6b                	je     401d94 <validate+0x77>
  401d29:	39 3d ed 37 20 00    	cmp    %edi,0x2037ed(%rip)        # 60551c <vlevel>
  401d2f:	74 14                	je     401d45 <validate+0x28>
  401d31:	bf b2 33 40 00       	mov    $0x4033b2,%edi
  401d36:	e8 b5 ef ff ff       	callq  400cf0 <puts@plt>
  401d3b:	b8 00 00 00 00       	mov    $0x0,%eax
  401d40:	e8 5e fd ff ff       	callq  401aa3 <check_fail>
  401d45:	8b 15 cd 37 20 00    	mov    0x2037cd(%rip),%edx        # 605518 <check_level>
  401d4b:	39 d7                	cmp    %edx,%edi
  401d4d:	74 20                	je     401d6f <validate+0x52>
  401d4f:	89 f9                	mov    %edi,%ecx
  401d51:	be f0 34 40 00       	mov    $0x4034f0,%esi
  401d56:	bf 01 00 00 00       	mov    $0x1,%edi
  401d5b:	b8 00 00 00 00       	mov    $0x0,%eax
  401d60:	e8 bb f0 ff ff       	callq  400e20 <__printf_chk@plt>
  401d65:	b8 00 00 00 00       	mov    $0x0,%eax
  401d6a:	e8 34 fd ff ff       	callq  401aa3 <check_fail>
  401d6f:	0f be 15 d2 43 20 00 	movsbl 0x2043d2(%rip),%edx        # 606148 <target_prefix>
  401d76:	41 b8 40 55 60 00    	mov    $0x605540,%r8d
  401d7c:	89 f9                	mov    %edi,%ecx
  401d7e:	be d0 33 40 00       	mov    $0x4033d0,%esi
  401d83:	bf 01 00 00 00       	mov    $0x1,%edi
  401d88:	b8 00 00 00 00       	mov    $0x0,%eax
  401d8d:	e8 8e f0 ff ff       	callq  400e20 <__printf_chk@plt>
  401d92:	eb 49                	jmp    401ddd <validate+0xc0>
  401d94:	3b 3d 82 37 20 00    	cmp    0x203782(%rip),%edi        # 60551c <vlevel>
  401d9a:	74 18                	je     401db4 <validate+0x97>
  401d9c:	bf b2 33 40 00       	mov    $0x4033b2,%edi
  401da1:	e8 4a ef ff ff       	callq  400cf0 <puts@plt>
  401da6:	89 de                	mov    %ebx,%esi
  401da8:	bf 00 00 00 00       	mov    $0x0,%edi
  401dad:	e8 78 fd ff ff       	callq  401b2a <notify_server>
  401db2:	eb 29                	jmp    401ddd <validate+0xc0>
  401db4:	0f be 0d 8d 43 20 00 	movsbl 0x20438d(%rip),%ecx        # 606148 <target_prefix>
  401dbb:	89 fa                	mov    %edi,%edx
  401dbd:	be 18 35 40 00       	mov    $0x403518,%esi
  401dc2:	bf 01 00 00 00       	mov    $0x1,%edi
  401dc7:	b8 00 00 00 00       	mov    $0x0,%eax
  401dcc:	e8 4f f0 ff ff       	callq  400e20 <__printf_chk@plt>
  401dd1:	89 de                	mov    %ebx,%esi
  401dd3:	bf 01 00 00 00       	mov    $0x1,%edi
  401dd8:	e8 4d fd ff ff       	callq  401b2a <notify_server>
  401ddd:	5b                   	pop    %rbx
  401dde:	c3                   	retq   

0000000000401ddf <fail>:
  401ddf:	48 83 ec 08          	sub    $0x8,%rsp
  401de3:	83 3d 3e 37 20 00 00 	cmpl   $0x0,0x20373e(%rip)        # 605528 <is_checker>
  401dea:	74 0a                	je     401df6 <fail+0x17>
  401dec:	b8 00 00 00 00       	mov    $0x0,%eax
  401df1:	e8 ad fc ff ff       	callq  401aa3 <check_fail>
  401df6:	89 fe                	mov    %edi,%esi
  401df8:	bf 00 00 00 00       	mov    $0x0,%edi
  401dfd:	e8 28 fd ff ff       	callq  401b2a <notify_server>
  401e02:	48 83 c4 08          	add    $0x8,%rsp
  401e06:	c3                   	retq   

0000000000401e07 <bushandler>:
  401e07:	48 83 ec 08          	sub    $0x8,%rsp
  401e0b:	83 3d 16 37 20 00 00 	cmpl   $0x0,0x203716(%rip)        # 605528 <is_checker>
  401e12:	74 14                	je     401e28 <bushandler+0x21>
  401e14:	bf e5 33 40 00       	mov    $0x4033e5,%edi
  401e19:	e8 d2 ee ff ff       	callq  400cf0 <puts@plt>
  401e1e:	b8 00 00 00 00       	mov    $0x0,%eax
  401e23:	e8 7b fc ff ff       	callq  401aa3 <check_fail>
  401e28:	bf 50 35 40 00       	mov    $0x403550,%edi
  401e2d:	e8 be ee ff ff       	callq  400cf0 <puts@plt>
  401e32:	bf ef 33 40 00       	mov    $0x4033ef,%edi
  401e37:	e8 b4 ee ff ff       	callq  400cf0 <puts@plt>
  401e3c:	be 00 00 00 00       	mov    $0x0,%esi
  401e41:	bf 00 00 00 00       	mov    $0x0,%edi
  401e46:	e8 df fc ff ff       	callq  401b2a <notify_server>
  401e4b:	bf 01 00 00 00       	mov    $0x1,%edi
  401e50:	e8 1b f0 ff ff       	callq  400e70 <exit@plt>

0000000000401e55 <seghandler>:
  401e55:	48 83 ec 08          	sub    $0x8,%rsp
  401e59:	83 3d c8 36 20 00 00 	cmpl   $0x0,0x2036c8(%rip)        # 605528 <is_checker>
  401e60:	74 14                	je     401e76 <seghandler+0x21>
  401e62:	bf 05 34 40 00       	mov    $0x403405,%edi
  401e67:	e8 84 ee ff ff       	callq  400cf0 <puts@plt>
  401e6c:	b8 00 00 00 00       	mov    $0x0,%eax
  401e71:	e8 2d fc ff ff       	callq  401aa3 <check_fail>
  401e76:	bf 70 35 40 00       	mov    $0x403570,%edi
  401e7b:	e8 70 ee ff ff       	callq  400cf0 <puts@plt>
  401e80:	bf ef 33 40 00       	mov    $0x4033ef,%edi
  401e85:	e8 66 ee ff ff       	callq  400cf0 <puts@plt>
  401e8a:	be 00 00 00 00       	mov    $0x0,%esi
  401e8f:	bf 00 00 00 00       	mov    $0x0,%edi
  401e94:	e8 91 fc ff ff       	callq  401b2a <notify_server>
  401e99:	bf 01 00 00 00       	mov    $0x1,%edi
  401e9e:	e8 cd ef ff ff       	callq  400e70 <exit@plt>

0000000000401ea3 <illegalhandler>:
  401ea3:	48 83 ec 08          	sub    $0x8,%rsp
  401ea7:	83 3d 7a 36 20 00 00 	cmpl   $0x0,0x20367a(%rip)        # 605528 <is_checker>
  401eae:	74 14                	je     401ec4 <illegalhandler+0x21>
  401eb0:	bf 18 34 40 00       	mov    $0x403418,%edi
  401eb5:	e8 36 ee ff ff       	callq  400cf0 <puts@plt>
  401eba:	b8 00 00 00 00       	mov    $0x0,%eax
  401ebf:	e8 df fb ff ff       	callq  401aa3 <check_fail>
  401ec4:	bf 98 35 40 00       	mov    $0x403598,%edi
  401ec9:	e8 22 ee ff ff       	callq  400cf0 <puts@plt>
  401ece:	bf ef 33 40 00       	mov    $0x4033ef,%edi
  401ed3:	e8 18 ee ff ff       	callq  400cf0 <puts@plt>
  401ed8:	be 00 00 00 00       	mov    $0x0,%esi
  401edd:	bf 00 00 00 00       	mov    $0x0,%edi
  401ee2:	e8 43 fc ff ff       	callq  401b2a <notify_server>
  401ee7:	bf 01 00 00 00       	mov    $0x1,%edi
  401eec:	e8 7f ef ff ff       	callq  400e70 <exit@plt>

0000000000401ef1 <sigalrmhandler>:
  401ef1:	48 83 ec 08          	sub    $0x8,%rsp
  401ef5:	83 3d 2c 36 20 00 00 	cmpl   $0x0,0x20362c(%rip)        # 605528 <is_checker>
  401efc:	74 14                	je     401f12 <sigalrmhandler+0x21>
  401efe:	bf 2c 34 40 00       	mov    $0x40342c,%edi
  401f03:	e8 e8 ed ff ff       	callq  400cf0 <puts@plt>
  401f08:	b8 00 00 00 00       	mov    $0x0,%eax
  401f0d:	e8 91 fb ff ff       	callq  401aa3 <check_fail>
  401f12:	ba 05 00 00 00       	mov    $0x5,%edx
  401f17:	be c8 35 40 00       	mov    $0x4035c8,%esi
  401f1c:	bf 01 00 00 00       	mov    $0x1,%edi
  401f21:	b8 00 00 00 00       	mov    $0x0,%eax
  401f26:	e8 f5 ee ff ff       	callq  400e20 <__printf_chk@plt>
  401f2b:	be 00 00 00 00       	mov    $0x0,%esi
  401f30:	bf 00 00 00 00       	mov    $0x0,%edi
  401f35:	e8 f0 fb ff ff       	callq  401b2a <notify_server>
  401f3a:	bf 01 00 00 00       	mov    $0x1,%edi
  401f3f:	e8 2c ef ff ff       	callq  400e70 <exit@plt>

0000000000401f44 <launch>:
  401f44:	55                   	push   %rbp
  401f45:	48 89 e5             	mov    %rsp,%rbp
  401f48:	48 83 ec 10          	sub    $0x10,%rsp
  401f4c:	48 89 fa             	mov    %rdi,%rdx
  401f4f:	64 48 8b 04 25 28 00 	mov    %fs:0x28,%rax
  401f56:	00 00 
  401f58:	48 89 45 f8          	mov    %rax,-0x8(%rbp)
  401f5c:	31 c0                	xor    %eax,%eax
  401f5e:	48 8d 47 1e          	lea    0x1e(%rdi),%rax
  401f62:	48 83 e0 f0          	and    $0xfffffffffffffff0,%rax
  401f66:	48 29 c4             	sub    %rax,%rsp
  401f69:	48 8d 7c 24 0f       	lea    0xf(%rsp),%rdi
  401f6e:	48 83 e7 f0          	and    $0xfffffffffffffff0,%rdi
  401f72:	be f4 00 00 00       	mov    $0xf4,%esi
  401f77:	e8 b4 ed ff ff       	callq  400d30 <memset@plt>
  401f7c:	48 8b 05 3d 35 20 00 	mov    0x20353d(%rip),%rax        # 6054c0 <stdin@@GLIBC_2.2.5>
  401f83:	48 39 05 86 35 20 00 	cmp    %rax,0x203586(%rip)        # 605510 <infile>
  401f8a:	75 14                	jne    401fa0 <launch+0x5c>
  401f8c:	be 34 34 40 00       	mov    $0x403434,%esi
  401f91:	bf 01 00 00 00       	mov    $0x1,%edi
  401f96:	b8 00 00 00 00       	mov    $0x0,%eax
  401f9b:	e8 80 ee ff ff       	callq  400e20 <__printf_chk@plt>
  401fa0:	c7 05 72 35 20 00 00 	movl   $0x0,0x203572(%rip)        # 60551c <vlevel>
  401fa7:	00 00 00 
  401faa:	b8 00 00 00 00       	mov    $0x0,%eax
  401faf:	e8 5b fa ff ff       	callq  401a0f <test>
  401fb4:	83 3d 6d 35 20 00 00 	cmpl   $0x0,0x20356d(%rip)        # 605528 <is_checker>
  401fbb:	74 14                	je     401fd1 <launch+0x8d>
  401fbd:	bf 41 34 40 00       	mov    $0x403441,%edi
  401fc2:	e8 29 ed ff ff       	callq  400cf0 <puts@plt>
  401fc7:	b8 00 00 00 00       	mov    $0x0,%eax
  401fcc:	e8 d2 fa ff ff       	callq  401aa3 <check_fail>
  401fd1:	bf 4c 34 40 00       	mov    $0x40344c,%edi
  401fd6:	e8 15 ed ff ff       	callq  400cf0 <puts@plt>
  401fdb:	48 8b 45 f8          	mov    -0x8(%rbp),%rax
  401fdf:	64 48 33 04 25 28 00 	xor    %fs:0x28,%rax
  401fe6:	00 00 
  401fe8:	74 05                	je     401fef <launch+0xab>
  401fea:	e8 21 ed ff ff       	callq  400d10 <__stack_chk_fail@plt>
  401fef:	c9                   	leaveq 
  401ff0:	c3                   	retq   

0000000000401ff1 <stable_launch>:
  401ff1:	53                   	push   %rbx
  401ff2:	48 89 3d 0f 35 20 00 	mov    %rdi,0x20350f(%rip)        # 605508 <global_offset>
  401ff9:	41 b9 00 00 00 00    	mov    $0x0,%r9d
  401fff:	41 b8 00 00 00 00    	mov    $0x0,%r8d
  402005:	b9 32 01 00 00       	mov    $0x132,%ecx
  40200a:	ba 07 00 00 00       	mov    $0x7,%edx
  40200f:	be 00 00 10 00       	mov    $0x100000,%esi
  402014:	bf 00 60 58 55       	mov    $0x55586000,%edi
  402019:	e8 02 ed ff ff       	callq  400d20 <mmap@plt>
  40201e:	48 89 c3             	mov    %rax,%rbx
  402021:	48 3d 00 60 58 55    	cmp    $0x55586000,%rax
  402027:	74 37                	je     402060 <stable_launch+0x6f>
  402029:	be 00 00 10 00       	mov    $0x100000,%esi
  40202e:	48 89 c7             	mov    %rax,%rdi
  402031:	e8 da ed ff ff       	callq  400e10 <munmap@plt>
  402036:	b9 00 60 58 55       	mov    $0x55586000,%ecx
  40203b:	ba 00 36 40 00       	mov    $0x403600,%edx
  402040:	be 01 00 00 00       	mov    $0x1,%esi
  402045:	48 8b 3d 94 34 20 00 	mov    0x203494(%rip),%rdi        # 6054e0 <stderr@@GLIBC_2.2.5>
  40204c:	b8 00 00 00 00       	mov    $0x0,%eax
  402051:	e8 3a ee ff ff       	callq  400e90 <__fprintf_chk@plt>
  402056:	bf 01 00 00 00       	mov    $0x1,%edi
  40205b:	e8 10 ee ff ff       	callq  400e70 <exit@plt>
  402060:	48 8d 90 f8 ff 0f 00 	lea    0xffff8(%rax),%rdx
  402067:	48 89 15 e2 40 20 00 	mov    %rdx,0x2040e2(%rip)        # 606150 <stack_top>
  40206e:	48 89 e0             	mov    %rsp,%rax
  402071:	48 89 d4             	mov    %rdx,%rsp
  402074:	48 89 c2             	mov    %rax,%rdx
  402077:	48 89 15 82 34 20 00 	mov    %rdx,0x203482(%rip)        # 605500 <global_save_stack>
  40207e:	48 8b 3d 83 34 20 00 	mov    0x203483(%rip),%rdi        # 605508 <global_offset>
  402085:	e8 ba fe ff ff       	callq  401f44 <launch>
  40208a:	48 8b 05 6f 34 20 00 	mov    0x20346f(%rip),%rax        # 605500 <global_save_stack>
  402091:	48 89 c4             	mov    %rax,%rsp
  402094:	be 00 00 10 00       	mov    $0x100000,%esi
  402099:	48 89 df             	mov    %rbx,%rdi
  40209c:	e8 6f ed ff ff       	callq  400e10 <munmap@plt>
  4020a1:	5b                   	pop    %rbx
  4020a2:	c3                   	retq   

00000000004020a3 <rio_readinitb>:
  4020a3:	89 37                	mov    %esi,(%rdi)
  4020a5:	c7 47 04 00 00 00 00 	movl   $0x0,0x4(%rdi)
  4020ac:	48 8d 47 10          	lea    0x10(%rdi),%rax
  4020b0:	48 89 47 08          	mov    %rax,0x8(%rdi)
  4020b4:	c3                   	retq   

00000000004020b5 <sigalrm_handler>:
  4020b5:	48 83 ec 08          	sub    $0x8,%rsp
  4020b9:	b9 00 00 00 00       	mov    $0x0,%ecx
  4020be:	ba 40 36 40 00       	mov    $0x403640,%edx
  4020c3:	be 01 00 00 00       	mov    $0x1,%esi
  4020c8:	48 8b 3d 11 34 20 00 	mov    0x203411(%rip),%rdi        # 6054e0 <stderr@@GLIBC_2.2.5>
  4020cf:	b8 00 00 00 00       	mov    $0x0,%eax
  4020d4:	e8 b7 ed ff ff       	callq  400e90 <__fprintf_chk@plt>
  4020d9:	bf 01 00 00 00       	mov    $0x1,%edi
  4020de:	e8 8d ed ff ff       	callq  400e70 <exit@plt>

00000000004020e3 <rio_writen>:
  4020e3:	41 55                	push   %r13
  4020e5:	41 54                	push   %r12
  4020e7:	55                   	push   %rbp
  4020e8:	53                   	push   %rbx
  4020e9:	48 83 ec 08          	sub    $0x8,%rsp
  4020ed:	41 89 fc             	mov    %edi,%r12d
  4020f0:	48 89 f5             	mov    %rsi,%rbp
  4020f3:	49 89 d5             	mov    %rdx,%r13
  4020f6:	48 89 d3             	mov    %rdx,%rbx
  4020f9:	eb 28                	jmp    402123 <rio_writen+0x40>
  4020fb:	48 89 da             	mov    %rbx,%rdx
  4020fe:	48 89 ee             	mov    %rbp,%rsi
  402101:	44 89 e7             	mov    %r12d,%edi
  402104:	e8 f7 eb ff ff       	callq  400d00 <write@plt>
  402109:	48 85 c0             	test   %rax,%rax
  40210c:	7f 0f                	jg     40211d <rio_writen+0x3a>
  40210e:	e8 9d eb ff ff       	callq  400cb0 <__errno_location@plt>
  402113:	83 38 04             	cmpl   $0x4,(%rax)
  402116:	75 15                	jne    40212d <rio_writen+0x4a>
  402118:	b8 00 00 00 00       	mov    $0x0,%eax
  40211d:	48 29 c3             	sub    %rax,%rbx
  402120:	48 01 c5             	add    %rax,%rbp
  402123:	48 85 db             	test   %rbx,%rbx
  402126:	75 d3                	jne    4020fb <rio_writen+0x18>
  402128:	4c 89 e8             	mov    %r13,%rax
  40212b:	eb 07                	jmp    402134 <rio_writen+0x51>
  40212d:	48 c7 c0 ff ff ff ff 	mov    $0xffffffffffffffff,%rax
  402134:	48 83 c4 08          	add    $0x8,%rsp
  402138:	5b                   	pop    %rbx
  402139:	5d                   	pop    %rbp
  40213a:	41 5c                	pop    %r12
  40213c:	41 5d                	pop    %r13
  40213e:	c3                   	retq   

000000000040213f <rio_read>:
  40213f:	41 55                	push   %r13
  402141:	41 54                	push   %r12
  402143:	55                   	push   %rbp
  402144:	53                   	push   %rbx
  402145:	48 83 ec 08          	sub    $0x8,%rsp
  402149:	48 89 fb             	mov    %rdi,%rbx
  40214c:	49 89 f5             	mov    %rsi,%r13
  40214f:	49 89 d4             	mov    %rdx,%r12
  402152:	eb 2e                	jmp    402182 <rio_read+0x43>
  402154:	48 8d 6b 10          	lea    0x10(%rbx),%rbp
  402158:	8b 3b                	mov    (%rbx),%edi
  40215a:	ba 00 20 00 00       	mov    $0x2000,%edx
  40215f:	48 89 ee             	mov    %rbp,%rsi
  402162:	e8 f9 eb ff ff       	callq  400d60 <read@plt>
  402167:	89 43 04             	mov    %eax,0x4(%rbx)
  40216a:	85 c0                	test   %eax,%eax
  40216c:	79 0c                	jns    40217a <rio_read+0x3b>
  40216e:	e8 3d eb ff ff       	callq  400cb0 <__errno_location@plt>
  402173:	83 38 04             	cmpl   $0x4,(%rax)
  402176:	74 0a                	je     402182 <rio_read+0x43>
  402178:	eb 37                	jmp    4021b1 <rio_read+0x72>
  40217a:	85 c0                	test   %eax,%eax
  40217c:	74 3c                	je     4021ba <rio_read+0x7b>
  40217e:	48 89 6b 08          	mov    %rbp,0x8(%rbx)
  402182:	8b 6b 04             	mov    0x4(%rbx),%ebp
  402185:	85 ed                	test   %ebp,%ebp
  402187:	7e cb                	jle    402154 <rio_read+0x15>
  402189:	89 e8                	mov    %ebp,%eax
  40218b:	49 39 c4             	cmp    %rax,%r12
  40218e:	77 03                	ja     402193 <rio_read+0x54>
  402190:	44 89 e5             	mov    %r12d,%ebp
  402193:	4c 63 e5             	movslq %ebp,%r12
  402196:	48 8b 73 08          	mov    0x8(%rbx),%rsi
  40219a:	4c 89 e2             	mov    %r12,%rdx
  40219d:	4c 89 ef             	mov    %r13,%rdi
  4021a0:	e8 1b ec ff ff       	callq  400dc0 <memcpy@plt>
  4021a5:	4c 01 63 08          	add    %r12,0x8(%rbx)
  4021a9:	29 6b 04             	sub    %ebp,0x4(%rbx)
  4021ac:	4c 89 e0             	mov    %r12,%rax
  4021af:	eb 0e                	jmp    4021bf <rio_read+0x80>
  4021b1:	48 c7 c0 ff ff ff ff 	mov    $0xffffffffffffffff,%rax
  4021b8:	eb 05                	jmp    4021bf <rio_read+0x80>
  4021ba:	b8 00 00 00 00       	mov    $0x0,%eax
  4021bf:	48 83 c4 08          	add    $0x8,%rsp
  4021c3:	5b                   	pop    %rbx
  4021c4:	5d                   	pop    %rbp
  4021c5:	41 5c                	pop    %r12
  4021c7:	41 5d                	pop    %r13
  4021c9:	c3                   	retq   

00000000004021ca <rio_readlineb>:
  4021ca:	41 55                	push   %r13
  4021cc:	41 54                	push   %r12
  4021ce:	55                   	push   %rbp
  4021cf:	53                   	push   %rbx
  4021d0:	48 83 ec 18          	sub    $0x18,%rsp
  4021d4:	49 89 fd             	mov    %rdi,%r13
  4021d7:	48 89 f5             	mov    %rsi,%rbp
  4021da:	49 89 d4             	mov    %rdx,%r12
  4021dd:	64 48 8b 04 25 28 00 	mov    %fs:0x28,%rax
  4021e4:	00 00 
  4021e6:	48 89 44 24 08       	mov    %rax,0x8(%rsp)
  4021eb:	31 c0                	xor    %eax,%eax
  4021ed:	bb 01 00 00 00       	mov    $0x1,%ebx
  4021f2:	eb 3f                	jmp    402233 <rio_readlineb+0x69>
  4021f4:	ba 01 00 00 00       	mov    $0x1,%edx
  4021f9:	48 8d 74 24 07       	lea    0x7(%rsp),%rsi
  4021fe:	4c 89 ef             	mov    %r13,%rdi
  402201:	e8 39 ff ff ff       	callq  40213f <rio_read>
  402206:	83 f8 01             	cmp    $0x1,%eax
  402209:	75 15                	jne    402220 <rio_readlineb+0x56>
  40220b:	48 8d 45 01          	lea    0x1(%rbp),%rax
  40220f:	0f b6 54 24 07       	movzbl 0x7(%rsp),%edx
  402214:	88 55 00             	mov    %dl,0x0(%rbp)
  402217:	80 7c 24 07 0a       	cmpb   $0xa,0x7(%rsp)
  40221c:	75 0e                	jne    40222c <rio_readlineb+0x62>
  40221e:	eb 1a                	jmp    40223a <rio_readlineb+0x70>
  402220:	85 c0                	test   %eax,%eax
  402222:	75 22                	jne    402246 <rio_readlineb+0x7c>
  402224:	48 83 fb 01          	cmp    $0x1,%rbx
  402228:	75 13                	jne    40223d <rio_readlineb+0x73>
  40222a:	eb 23                	jmp    40224f <rio_readlineb+0x85>
  40222c:	48 83 c3 01          	add    $0x1,%rbx
  402230:	48 89 c5             	mov    %rax,%rbp
  402233:	4c 39 e3             	cmp    %r12,%rbx
  402236:	72 bc                	jb     4021f4 <rio_readlineb+0x2a>
  402238:	eb 03                	jmp    40223d <rio_readlineb+0x73>
  40223a:	48 89 c5             	mov    %rax,%rbp
  40223d:	c6 45 00 00          	movb   $0x0,0x0(%rbp)
  402241:	48 89 d8             	mov    %rbx,%rax
  402244:	eb 0e                	jmp    402254 <rio_readlineb+0x8a>
  402246:	48 c7 c0 ff ff ff ff 	mov    $0xffffffffffffffff,%rax
  40224d:	eb 05                	jmp    402254 <rio_readlineb+0x8a>
  40224f:	b8 00 00 00 00       	mov    $0x0,%eax
  402254:	48 8b 4c 24 08       	mov    0x8(%rsp),%rcx
  402259:	64 48 33 0c 25 28 00 	xor    %fs:0x28,%rcx
  402260:	00 00 
  402262:	74 05                	je     402269 <rio_readlineb+0x9f>
  402264:	e8 a7 ea ff ff       	callq  400d10 <__stack_chk_fail@plt>
  402269:	48 83 c4 18          	add    $0x18,%rsp
  40226d:	5b                   	pop    %rbx
  40226e:	5d                   	pop    %rbp
  40226f:	41 5c                	pop    %r12
  402271:	41 5d                	pop    %r13
  402273:	c3                   	retq   

0000000000402274 <urlencode>:
  402274:	41 54                	push   %r12
  402276:	55                   	push   %rbp
  402277:	53                   	push   %rbx
  402278:	48 83 ec 10          	sub    $0x10,%rsp
  40227c:	48 89 fb             	mov    %rdi,%rbx
  40227f:	48 89 f5             	mov    %rsi,%rbp
  402282:	64 48 8b 04 25 28 00 	mov    %fs:0x28,%rax
  402289:	00 00 
  40228b:	48 89 44 24 08       	mov    %rax,0x8(%rsp)
  402290:	31 c0                	xor    %eax,%eax
  402292:	48 c7 c1 ff ff ff ff 	mov    $0xffffffffffffffff,%rcx
  402299:	f2 ae                	repnz scas %es:(%rdi),%al
  40229b:	48 f7 d1             	not    %rcx
  40229e:	8d 41 ff             	lea    -0x1(%rcx),%eax
  4022a1:	e9 aa 00 00 00       	jmpq   402350 <urlencode+0xdc>
  4022a6:	44 0f b6 03          	movzbl (%rbx),%r8d
  4022aa:	41 80 f8 2a          	cmp    $0x2a,%r8b
  4022ae:	0f 94 c2             	sete   %dl
  4022b1:	41 80 f8 2d          	cmp    $0x2d,%r8b
  4022b5:	0f 94 c0             	sete   %al
  4022b8:	08 c2                	or     %al,%dl
  4022ba:	75 24                	jne    4022e0 <urlencode+0x6c>
  4022bc:	41 80 f8 2e          	cmp    $0x2e,%r8b
  4022c0:	74 1e                	je     4022e0 <urlencode+0x6c>
  4022c2:	41 80 f8 5f          	cmp    $0x5f,%r8b
  4022c6:	74 18                	je     4022e0 <urlencode+0x6c>
  4022c8:	41 8d 40 d0          	lea    -0x30(%r8),%eax
  4022cc:	3c 09                	cmp    $0x9,%al
  4022ce:	76 10                	jbe    4022e0 <urlencode+0x6c>
  4022d0:	41 8d 40 bf          	lea    -0x41(%r8),%eax
  4022d4:	3c 19                	cmp    $0x19,%al
  4022d6:	76 08                	jbe    4022e0 <urlencode+0x6c>
  4022d8:	41 8d 40 9f          	lea    -0x61(%r8),%eax
  4022dc:	3c 19                	cmp    $0x19,%al
  4022de:	77 0a                	ja     4022ea <urlencode+0x76>
  4022e0:	44 88 45 00          	mov    %r8b,0x0(%rbp)
  4022e4:	48 8d 6d 01          	lea    0x1(%rbp),%rbp
  4022e8:	eb 5f                	jmp    402349 <urlencode+0xd5>
  4022ea:	41 80 f8 20          	cmp    $0x20,%r8b
  4022ee:	75 0a                	jne    4022fa <urlencode+0x86>
  4022f0:	c6 45 00 2b          	movb   $0x2b,0x0(%rbp)
  4022f4:	48 8d 6d 01          	lea    0x1(%rbp),%rbp
  4022f8:	eb 4f                	jmp    402349 <urlencode+0xd5>
  4022fa:	41 8d 40 e0          	lea    -0x20(%r8),%eax
  4022fe:	3c 5f                	cmp    $0x5f,%al
  402300:	0f 96 c2             	setbe  %dl
  402303:	41 80 f8 09          	cmp    $0x9,%r8b
  402307:	0f 94 c0             	sete   %al
  40230a:	08 c2                	or     %al,%dl
  40230c:	74 50                	je     40235e <urlencode+0xea>
  40230e:	45 0f b6 c0          	movzbl %r8b,%r8d
  402312:	b9 f8 36 40 00       	mov    $0x4036f8,%ecx
  402317:	ba 08 00 00 00       	mov    $0x8,%edx
  40231c:	be 01 00 00 00       	mov    $0x1,%esi
  402321:	48 89 e7             	mov    %rsp,%rdi
  402324:	b8 00 00 00 00       	mov    $0x0,%eax
  402329:	e8 72 eb ff ff       	callq  400ea0 <__sprintf_chk@plt>
  40232e:	0f b6 04 24          	movzbl (%rsp),%eax
  402332:	88 45 00             	mov    %al,0x0(%rbp)
  402335:	0f b6 44 24 01       	movzbl 0x1(%rsp),%eax
  40233a:	88 45 01             	mov    %al,0x1(%rbp)
  40233d:	0f b6 44 24 02       	movzbl 0x2(%rsp),%eax
  402342:	88 45 02             	mov    %al,0x2(%rbp)
  402345:	48 8d 6d 03          	lea    0x3(%rbp),%rbp
  402349:	48 83 c3 01          	add    $0x1,%rbx
  40234d:	44 89 e0             	mov    %r12d,%eax
  402350:	44 8d 60 ff          	lea    -0x1(%rax),%r12d
  402354:	85 c0                	test   %eax,%eax
  402356:	0f 85 4a ff ff ff    	jne    4022a6 <urlencode+0x32>
  40235c:	eb 05                	jmp    402363 <urlencode+0xef>
  40235e:	b8 ff ff ff ff       	mov    $0xffffffff,%eax
  402363:	48 8b 74 24 08       	mov    0x8(%rsp),%rsi
  402368:	64 48 33 34 25 28 00 	xor    %fs:0x28,%rsi
  40236f:	00 00 
  402371:	74 05                	je     402378 <urlencode+0x104>
  402373:	e8 98 e9 ff ff       	callq  400d10 <__stack_chk_fail@plt>
  402378:	48 83 c4 10          	add    $0x10,%rsp
  40237c:	5b                   	pop    %rbx
  40237d:	5d                   	pop    %rbp
  40237e:	41 5c                	pop    %r12
  402380:	c3                   	retq   

0000000000402381 <submitr>:
  402381:	41 57                	push   %r15
  402383:	41 56                	push   %r14
  402385:	41 55                	push   %r13
  402387:	41 54                	push   %r12
  402389:	55                   	push   %rbp
  40238a:	53                   	push   %rbx
  40238b:	48 81 ec 58 a0 00 00 	sub    $0xa058,%rsp
  402392:	49 89 fd             	mov    %rdi,%r13
  402395:	89 74 24 0c          	mov    %esi,0xc(%rsp)
  402399:	48 89 14 24          	mov    %rdx,(%rsp)
  40239d:	49 89 ce             	mov    %rcx,%r14
  4023a0:	4d 89 c7             	mov    %r8,%r15
  4023a3:	4d 89 cc             	mov    %r9,%r12
  4023a6:	48 8b 9c 24 90 a0 00 	mov    0xa090(%rsp),%rbx
  4023ad:	00 
  4023ae:	64 48 8b 04 25 28 00 	mov    %fs:0x28,%rax
  4023b5:	00 00 
  4023b7:	48 89 84 24 48 a0 00 	mov    %rax,0xa048(%rsp)
  4023be:	00 
  4023bf:	31 c0                	xor    %eax,%eax
  4023c1:	c7 44 24 1c 00 00 00 	movl   $0x0,0x1c(%rsp)
  4023c8:	00 
  4023c9:	ba 00 00 00 00       	mov    $0x0,%edx
  4023ce:	be 01 00 00 00       	mov    $0x1,%esi
  4023d3:	bf 02 00 00 00       	mov    $0x2,%edi
  4023d8:	e8 d3 ea ff ff       	callq  400eb0 <socket@plt>
  4023dd:	85 c0                	test   %eax,%eax
  4023df:	79 4e                	jns    40242f <submitr+0xae>
  4023e1:	48 b8 45 72 72 6f 72 	movabs $0x43203a726f727245,%rax
  4023e8:	3a 20 43 
  4023eb:	48 89 03             	mov    %rax,(%rbx)
  4023ee:	48 b8 6c 69 65 6e 74 	movabs $0x6e7520746e65696c,%rax
  4023f5:	20 75 6e 
  4023f8:	48 89 43 08          	mov    %rax,0x8(%rbx)
  4023fc:	48 b8 61 62 6c 65 20 	movabs $0x206f7420656c6261,%rax
  402403:	74 6f 20 
  402406:	48 89 43 10          	mov    %rax,0x10(%rbx)
  40240a:	48 b8 63 72 65 61 74 	movabs $0x7320657461657263,%rax
  402411:	65 20 73 
  402414:	48 89 43 18          	mov    %rax,0x18(%rbx)
  402418:	c7 43 20 6f 63 6b 65 	movl   $0x656b636f,0x20(%rbx)
  40241f:	66 c7 43 24 74 00    	movw   $0x74,0x24(%rbx)
  402425:	b8 ff ff ff ff       	mov    $0xffffffff,%eax
  40242a:	e9 b3 06 00 00       	jmpq   402ae2 <submitr+0x761>
  40242f:	89 c5                	mov    %eax,%ebp
  402431:	4c 89 ef             	mov    %r13,%rdi
  402434:	e8 57 e9 ff ff       	callq  400d90 <gethostbyname@plt>
  402439:	48 85 c0             	test   %rax,%rax
  40243c:	75 75                	jne    4024b3 <submitr+0x132>
  40243e:	48 b8 45 72 72 6f 72 	movabs $0x44203a726f727245,%rax
  402445:	3a 20 44 
  402448:	48 89 03             	mov    %rax,(%rbx)
  40244b:	48 b8 4e 53 20 69 73 	movabs $0x6e7520736920534e,%rax
  402452:	20 75 6e 
  402455:	48 89 43 08          	mov    %rax,0x8(%rbx)
  402459:	48 b8 61 62 6c 65 20 	movabs $0x206f7420656c6261,%rax
  402460:	74 6f 20 
  402463:	48 89 43 10          	mov    %rax,0x10(%rbx)
  402467:	48 b8 72 65 73 6f 6c 	movabs $0x2065766c6f736572,%rax
  40246e:	76 65 20 
  402471:	48 89 43 18          	mov    %rax,0x18(%rbx)
  402475:	48 b8 41 75 74 6f 6c 	movabs $0x2062616c6f747541,%rax
  40247c:	61 62 20 
  40247f:	48 89 43 20          	mov    %rax,0x20(%rbx)
  402483:	48 b8 73 65 72 76 65 	movabs $0x6120726576726573,%rax
  40248a:	72 20 61 
  40248d:	48 89 43 28          	mov    %rax,0x28(%rbx)
  402491:	c7 43 30 64 64 72 65 	movl   $0x65726464,0x30(%rbx)
  402498:	66 c7 43 34 73 73    	movw   $0x7373,0x34(%rbx)
  40249e:	c6 43 36 00          	movb   $0x0,0x36(%rbx)
  4024a2:	89 ef                	mov    %ebp,%edi
  4024a4:	e8 a7 e8 ff ff       	callq  400d50 <close@plt>
  4024a9:	b8 ff ff ff ff       	mov    $0xffffffff,%eax
  4024ae:	e9 2f 06 00 00       	jmpq   402ae2 <submitr+0x761>
  4024b3:	48 c7 44 24 20 00 00 	movq   $0x0,0x20(%rsp)
  4024ba:	00 00 
  4024bc:	48 c7 44 24 28 00 00 	movq   $0x0,0x28(%rsp)
  4024c3:	00 00 
  4024c5:	66 c7 44 24 20 02 00 	movw   $0x2,0x20(%rsp)
  4024cc:	48 63 50 14          	movslq 0x14(%rax),%rdx
  4024d0:	48 8b 40 18          	mov    0x18(%rax),%rax
  4024d4:	48 8b 30             	mov    (%rax),%rsi
  4024d7:	48 8d 7c 24 24       	lea    0x24(%rsp),%rdi
  4024dc:	b9 0c 00 00 00       	mov    $0xc,%ecx
  4024e1:	e8 ba e8 ff ff       	callq  400da0 <__memmove_chk@plt>
  4024e6:	0f b7 44 24 0c       	movzwl 0xc(%rsp),%eax
  4024eb:	66 c1 c8 08          	ror    $0x8,%ax
  4024ef:	66 89 44 24 22       	mov    %ax,0x22(%rsp)
  4024f4:	ba 10 00 00 00       	mov    $0x10,%edx
  4024f9:	48 8d 74 24 20       	lea    0x20(%rsp),%rsi
  4024fe:	89 ef                	mov    %ebp,%edi
  402500:	e8 7b e9 ff ff       	callq  400e80 <connect@plt>
  402505:	85 c0                	test   %eax,%eax
  402507:	79 67                	jns    402570 <submitr+0x1ef>
  402509:	48 b8 45 72 72 6f 72 	movabs $0x55203a726f727245,%rax
  402510:	3a 20 55 
  402513:	48 89 03             	mov    %rax,(%rbx)
  402516:	48 b8 6e 61 62 6c 65 	movabs $0x6f7420656c62616e,%rax
  40251d:	20 74 6f 
  402520:	48 89 43 08          	mov    %rax,0x8(%rbx)
  402524:	48 b8 20 63 6f 6e 6e 	movabs $0x7463656e6e6f6320,%rax
  40252b:	65 63 74 
  40252e:	48 89 43 10          	mov    %rax,0x10(%rbx)
  402532:	48 b8 20 74 6f 20 74 	movabs $0x20656874206f7420,%rax
  402539:	68 65 20 
  40253c:	48 89 43 18          	mov    %rax,0x18(%rbx)
  402540:	48 b8 41 75 74 6f 6c 	movabs $0x2062616c6f747541,%rax
  402547:	61 62 20 
  40254a:	48 89 43 20          	mov    %rax,0x20(%rbx)
  40254e:	c7 43 28 73 65 72 76 	movl   $0x76726573,0x28(%rbx)
  402555:	66 c7 43 2c 65 72    	movw   $0x7265,0x2c(%rbx)
  40255b:	c6 43 2e 00          	movb   $0x0,0x2e(%rbx)
  40255f:	89 ef                	mov    %ebp,%edi
  402561:	e8 ea e7 ff ff       	callq  400d50 <close@plt>
  402566:	b8 ff ff ff ff       	mov    $0xffffffff,%eax
  40256b:	e9 72 05 00 00       	jmpq   402ae2 <submitr+0x761>
  402570:	48 c7 c6 ff ff ff ff 	mov    $0xffffffffffffffff,%rsi
  402577:	b8 00 00 00 00       	mov    $0x0,%eax
  40257c:	48 89 f1             	mov    %rsi,%rcx
  40257f:	4c 89 e7             	mov    %r12,%rdi
  402582:	f2 ae                	repnz scas %es:(%rdi),%al
  402584:	48 f7 d1             	not    %rcx
  402587:	48 89 ca             	mov    %rcx,%rdx
  40258a:	48 89 f1             	mov    %rsi,%rcx
  40258d:	48 8b 3c 24          	mov    (%rsp),%rdi
  402591:	f2 ae                	repnz scas %es:(%rdi),%al
  402593:	48 f7 d1             	not    %rcx
  402596:	49 89 c8             	mov    %rcx,%r8
  402599:	48 89 f1             	mov    %rsi,%rcx
  40259c:	4c 89 f7             	mov    %r14,%rdi
  40259f:	f2 ae                	repnz scas %es:(%rdi),%al
  4025a1:	48 f7 d1             	not    %rcx
  4025a4:	4d 8d 44 08 fe       	lea    -0x2(%r8,%rcx,1),%r8
  4025a9:	48 89 f1             	mov    %rsi,%rcx
  4025ac:	4c 89 ff             	mov    %r15,%rdi
  4025af:	f2 ae                	repnz scas %es:(%rdi),%al
  4025b1:	48 89 c8             	mov    %rcx,%rax
  4025b4:	48 f7 d0             	not    %rax
  4025b7:	49 8d 4c 00 ff       	lea    -0x1(%r8,%rax,1),%rcx
  4025bc:	48 8d 44 52 fd       	lea    -0x3(%rdx,%rdx,2),%rax
  4025c1:	48 8d 84 01 80 00 00 	lea    0x80(%rcx,%rax,1),%rax
  4025c8:	00 
  4025c9:	48 3d 00 20 00 00    	cmp    $0x2000,%rax
  4025cf:	76 72                	jbe    402643 <submitr+0x2c2>
  4025d1:	48 b8 45 72 72 6f 72 	movabs $0x52203a726f727245,%rax
  4025d8:	3a 20 52 
  4025db:	48 89 03             	mov    %rax,(%rbx)
  4025de:	48 b8 65 73 75 6c 74 	movabs $0x747320746c757365,%rax
  4025e5:	20 73 74 
  4025e8:	48 89 43 08          	mov    %rax,0x8(%rbx)
  4025ec:	48 b8 72 69 6e 67 20 	movabs $0x6f6f7420676e6972,%rax
  4025f3:	74 6f 6f 
  4025f6:	48 89 43 10          	mov    %rax,0x10(%rbx)
  4025fa:	48 b8 20 6c 61 72 67 	movabs $0x202e656772616c20,%rax
  402601:	65 2e 20 
  402604:	48 89 43 18          	mov    %rax,0x18(%rbx)
  402608:	48 b8 49 6e 63 72 65 	movabs $0x6573616572636e49,%rax
  40260f:	61 73 65 
  402612:	48 89 43 20          	mov    %rax,0x20(%rbx)
  402616:	48 b8 20 53 55 42 4d 	movabs $0x5254494d42555320,%rax
  40261d:	49 54 52 
  402620:	48 89 43 28          	mov    %rax,0x28(%rbx)
  402624:	48 b8 5f 4d 41 58 42 	movabs $0x46554258414d5f,%rax
  40262b:	55 46 00 
  40262e:	48 89 43 30          	mov    %rax,0x30(%rbx)
  402632:	89 ef                	mov    %ebp,%edi
  402634:	e8 17 e7 ff ff       	callq  400d50 <close@plt>
  402639:	b8 ff ff ff ff       	mov    $0xffffffff,%eax
  40263e:	e9 9f 04 00 00       	jmpq   402ae2 <submitr+0x761>
  402643:	48 8d b4 24 40 40 00 	lea    0x4040(%rsp),%rsi
  40264a:	00 
  40264b:	b9 00 04 00 00       	mov    $0x400,%ecx
  402650:	b8 00 00 00 00       	mov    $0x0,%eax
  402655:	48 89 f7             	mov    %rsi,%rdi
  402658:	f3 48 ab             	rep stos %rax,%es:(%rdi)
  40265b:	4c 89 e7             	mov    %r12,%rdi
  40265e:	e8 11 fc ff ff       	callq  402274 <urlencode>
  402663:	85 c0                	test   %eax,%eax
  402665:	0f 89 8a 00 00 00    	jns    4026f5 <submitr+0x374>
  40266b:	48 b8 45 72 72 6f 72 	movabs $0x52203a726f727245,%rax
  402672:	3a 20 52 
  402675:	48 89 03             	mov    %rax,(%rbx)
  402678:	48 b8 65 73 75 6c 74 	movabs $0x747320746c757365,%rax
  40267f:	20 73 74 
  402682:	48 89 43 08          	mov    %rax,0x8(%rbx)
  402686:	48 b8 72 69 6e 67 20 	movabs $0x6e6f6320676e6972,%rax
  40268d:	63 6f 6e 
  402690:	48 89 43 10          	mov    %rax,0x10(%rbx)
  402694:	48 b8 74 61 69 6e 73 	movabs $0x6e6120736e696174,%rax
  40269b:	20 61 6e 
  40269e:	48 89 43 18          	mov    %rax,0x18(%rbx)
  4026a2:	48 b8 20 69 6c 6c 65 	movabs $0x6c6167656c6c6920,%rax
  4026a9:	67 61 6c 
  4026ac:	48 89 43 20          	mov    %rax,0x20(%rbx)
  4026b0:	48 b8 20 6f 72 20 75 	movabs $0x72706e7520726f20,%rax
  4026b7:	6e 70 72 
  4026ba:	48 89 43 28          	mov    %rax,0x28(%rbx)
  4026be:	48 b8 69 6e 74 61 62 	movabs $0x20656c6261746e69,%rax
  4026c5:	6c 65 20 
  4026c8:	48 89 43 30          	mov    %rax,0x30(%rbx)
  4026cc:	48 b8 63 68 61 72 61 	movabs $0x6574636172616863,%rax
  4026d3:	63 74 65 
  4026d6:	48 89 43 38          	mov    %rax,0x38(%rbx)
  4026da:	66 c7 43 40 72 2e    	movw   $0x2e72,0x40(%rbx)
  4026e0:	c6 43 42 00          	movb   $0x0,0x42(%rbx)
  4026e4:	89 ef                	mov    %ebp,%edi
  4026e6:	e8 65 e6 ff ff       	callq  400d50 <close@plt>
  4026eb:	b8 ff ff ff ff       	mov    $0xffffffff,%eax
  4026f0:	e9 ed 03 00 00       	jmpq   402ae2 <submitr+0x761>
  4026f5:	4c 8d a4 24 40 20 00 	lea    0x2040(%rsp),%r12
  4026fc:	00 
  4026fd:	48 83 ec 08          	sub    $0x8,%rsp
  402701:	41 55                	push   %r13
  402703:	48 8d 84 24 50 40 00 	lea    0x4050(%rsp),%rax
  40270a:	00 
  40270b:	50                   	push   %rax
  40270c:	41 56                	push   %r14
  40270e:	4d 89 f9             	mov    %r15,%r9
  402711:	4c 8b 44 24 20       	mov    0x20(%rsp),%r8
  402716:	b9 68 36 40 00       	mov    $0x403668,%ecx
  40271b:	ba 00 20 00 00       	mov    $0x2000,%edx
  402720:	be 01 00 00 00       	mov    $0x1,%esi
  402725:	4c 89 e7             	mov    %r12,%rdi
  402728:	b8 00 00 00 00       	mov    $0x0,%eax
  40272d:	e8 6e e7 ff ff       	callq  400ea0 <__sprintf_chk@plt>
  402732:	b8 00 00 00 00       	mov    $0x0,%eax
  402737:	48 c7 c1 ff ff ff ff 	mov    $0xffffffffffffffff,%rcx
  40273e:	4c 89 e7             	mov    %r12,%rdi
  402741:	f2 ae                	repnz scas %es:(%rdi),%al
  402743:	48 f7 d1             	not    %rcx
  402746:	48 8d 51 ff          	lea    -0x1(%rcx),%rdx
  40274a:	48 83 c4 20          	add    $0x20,%rsp
  40274e:	4c 89 e6             	mov    %r12,%rsi
  402751:	89 ef                	mov    %ebp,%edi
  402753:	e8 8b f9 ff ff       	callq  4020e3 <rio_writen>
  402758:	48 85 c0             	test   %rax,%rax
  40275b:	79 6b                	jns    4027c8 <submitr+0x447>
  40275d:	48 b8 45 72 72 6f 72 	movabs $0x43203a726f727245,%rax
  402764:	3a 20 43 
  402767:	48 89 03             	mov    %rax,(%rbx)
  40276a:	48 b8 6c 69 65 6e 74 	movabs $0x6e7520746e65696c,%rax
  402771:	20 75 6e 
  402774:	48 89 43 08          	mov    %rax,0x8(%rbx)
  402778:	48 b8 61 62 6c 65 20 	movabs $0x206f7420656c6261,%rax
  40277f:	74 6f 20 
  402782:	48 89 43 10          	mov    %rax,0x10(%rbx)
  402786:	48 b8 77 72 69 74 65 	movabs $0x6f74206574697277,%rax
  40278d:	20 74 6f 
  402790:	48 89 43 18          	mov    %rax,0x18(%rbx)
  402794:	48 b8 20 74 68 65 20 	movabs $0x7475412065687420,%rax
  40279b:	41 75 74 
  40279e:	48 89 43 20          	mov    %rax,0x20(%rbx)
  4027a2:	48 b8 6f 6c 61 62 20 	movabs $0x7265732062616c6f,%rax
  4027a9:	73 65 72 
  4027ac:	48 89 43 28          	mov    %rax,0x28(%rbx)
  4027b0:	c7 43 30 76 65 72 00 	movl   $0x726576,0x30(%rbx)
  4027b7:	89 ef                	mov    %ebp,%edi
  4027b9:	e8 92 e5 ff ff       	callq  400d50 <close@plt>
  4027be:	b8 ff ff ff ff       	mov    $0xffffffff,%eax
  4027c3:	e9 1a 03 00 00       	jmpq   402ae2 <submitr+0x761>
  4027c8:	89 ee                	mov    %ebp,%esi
  4027ca:	48 8d 7c 24 30       	lea    0x30(%rsp),%rdi
  4027cf:	e8 cf f8 ff ff       	callq  4020a3 <rio_readinitb>
  4027d4:	ba 00 20 00 00       	mov    $0x2000,%edx
  4027d9:	48 8d b4 24 40 20 00 	lea    0x2040(%rsp),%rsi
  4027e0:	00 
  4027e1:	48 8d 7c 24 30       	lea    0x30(%rsp),%rdi
  4027e6:	e8 df f9 ff ff       	callq  4021ca <rio_readlineb>
  4027eb:	48 85 c0             	test   %rax,%rax
  4027ee:	7f 7f                	jg     40286f <submitr+0x4ee>
  4027f0:	48 b8 45 72 72 6f 72 	movabs $0x43203a726f727245,%rax
  4027f7:	3a 20 43 
  4027fa:	48 89 03             	mov    %rax,(%rbx)
  4027fd:	48 b8 6c 69 65 6e 74 	movabs $0x6e7520746e65696c,%rax
  402804:	20 75 6e 
  402807:	48 89 43 08          	mov    %rax,0x8(%rbx)
  40280b:	48 b8 61 62 6c 65 20 	movabs $0x206f7420656c6261,%rax
  402812:	74 6f 20 
  402815:	48 89 43 10          	mov    %rax,0x10(%rbx)
  402819:	48 b8 72 65 61 64 20 	movabs $0x7269662064616572,%rax
  402820:	66 69 72 
  402823:	48 89 43 18          	mov    %rax,0x18(%rbx)
  402827:	48 b8 73 74 20 68 65 	movabs $0x6564616568207473,%rax
  40282e:	61 64 65 
  402831:	48 89 43 20          	mov    %rax,0x20(%rbx)
  402835:	48 b8 72 20 66 72 6f 	movabs $0x41206d6f72662072,%rax
  40283c:	6d 20 41 
  40283f:	48 89 43 28          	mov    %rax,0x28(%rbx)
  402843:	48 b8 75 74 6f 6c 61 	movabs $0x732062616c6f7475,%rax
  40284a:	62 20 73 
  40284d:	48 89 43 30          	mov    %rax,0x30(%rbx)
  402851:	c7 43 38 65 72 76 65 	movl   $0x65767265,0x38(%rbx)
  402858:	66 c7 43 3c 72 00    	movw   $0x72,0x3c(%rbx)
  40285e:	89 ef                	mov    %ebp,%edi
  402860:	e8 eb e4 ff ff       	callq  400d50 <close@plt>
  402865:	b8 ff ff ff ff       	mov    $0xffffffff,%eax
  40286a:	e9 73 02 00 00       	jmpq   402ae2 <submitr+0x761>
  40286f:	4c 8d 84 24 40 80 00 	lea    0x8040(%rsp),%r8
  402876:	00 
  402877:	48 8d 4c 24 1c       	lea    0x1c(%rsp),%rcx
  40287c:	48 8d 94 24 40 60 00 	lea    0x6040(%rsp),%rdx
  402883:	00 
  402884:	be ff 36 40 00       	mov    $0x4036ff,%esi
  402889:	48 8d bc 24 40 20 00 	lea    0x2040(%rsp),%rdi
  402890:	00 
  402891:	b8 00 00 00 00       	mov    $0x0,%eax
  402896:	e8 65 e5 ff ff       	callq  400e00 <__isoc99_sscanf@plt>
  40289b:	e9 92 00 00 00       	jmpq   402932 <submitr+0x5b1>
  4028a0:	ba 00 20 00 00       	mov    $0x2000,%edx
  4028a5:	48 8d b4 24 40 20 00 	lea    0x2040(%rsp),%rsi
  4028ac:	00 
  4028ad:	48 8d 7c 24 30       	lea    0x30(%rsp),%rdi
  4028b2:	e8 13 f9 ff ff       	callq  4021ca <rio_readlineb>
  4028b7:	48 85 c0             	test   %rax,%rax
  4028ba:	7f 76                	jg     402932 <submitr+0x5b1>
  4028bc:	48 b8 45 72 72 6f 72 	movabs $0x43203a726f727245,%rax
  4028c3:	3a 20 43 
  4028c6:	48 89 03             	mov    %rax,(%rbx)
  4028c9:	48 b8 6c 69 65 6e 74 	movabs $0x6e7520746e65696c,%rax
  4028d0:	20 75 6e 
  4028d3:	48 89 43 08          	mov    %rax,0x8(%rbx)
  4028d7:	48 b8 61 62 6c 65 20 	movabs $0x206f7420656c6261,%rax
  4028de:	74 6f 20 
  4028e1:	48 89 43 10          	mov    %rax,0x10(%rbx)
  4028e5:	48 b8 72 65 61 64 20 	movabs $0x6165682064616572,%rax
  4028ec:	68 65 61 
  4028ef:	48 89 43 18          	mov    %rax,0x18(%rbx)
  4028f3:	48 b8 64 65 72 73 20 	movabs $0x6f72662073726564,%rax
  4028fa:	66 72 6f 
  4028fd:	48 89 43 20          	mov    %rax,0x20(%rbx)
  402901:	48 b8 6d 20 41 75 74 	movabs $0x616c6f747541206d,%rax
  402908:	6f 6c 61 
  40290b:	48 89 43 28          	mov    %rax,0x28(%rbx)
  40290f:	48 b8 62 20 73 65 72 	movabs $0x7265767265732062,%rax
  402916:	76 65 72 
  402919:	48 89 43 30          	mov    %rax,0x30(%rbx)
  40291d:	c6 43 38 00          	movb   $0x0,0x38(%rbx)
  402921:	89 ef                	mov    %ebp,%edi
  402923:	e8 28 e4 ff ff       	callq  400d50 <close@plt>
  402928:	b8 ff ff ff ff       	mov    $0xffffffff,%eax
  40292d:	e9 b0 01 00 00       	jmpq   402ae2 <submitr+0x761>
  402932:	0f b6 94 24 40 20 00 	movzbl 0x2040(%rsp),%edx
  402939:	00 
  40293a:	b8 0d 00 00 00       	mov    $0xd,%eax
  40293f:	29 d0                	sub    %edx,%eax
  402941:	75 1b                	jne    40295e <submitr+0x5dd>
  402943:	0f b6 94 24 41 20 00 	movzbl 0x2041(%rsp),%edx
  40294a:	00 
  40294b:	b8 0a 00 00 00       	mov    $0xa,%eax
  402950:	29 d0                	sub    %edx,%eax
  402952:	75 0a                	jne    40295e <submitr+0x5dd>
  402954:	0f b6 84 24 42 20 00 	movzbl 0x2042(%rsp),%eax
  40295b:	00 
  40295c:	f7 d8                	neg    %eax
  40295e:	85 c0                	test   %eax,%eax
  402960:	0f 85 3a ff ff ff    	jne    4028a0 <submitr+0x51f>
  402966:	ba 00 20 00 00       	mov    $0x2000,%edx
  40296b:	48 8d b4 24 40 20 00 	lea    0x2040(%rsp),%rsi
  402972:	00 
  402973:	48 8d 7c 24 30       	lea    0x30(%rsp),%rdi
  402978:	e8 4d f8 ff ff       	callq  4021ca <rio_readlineb>
  40297d:	48 85 c0             	test   %rax,%rax
  402980:	0f 8f 80 00 00 00    	jg     402a06 <submitr+0x685>
  402986:	48 b8 45 72 72 6f 72 	movabs $0x43203a726f727245,%rax
  40298d:	3a 20 43 
  402990:	48 89 03             	mov    %rax,(%rbx)
  402993:	48 b8 6c 69 65 6e 74 	movabs $0x6e7520746e65696c,%rax
  40299a:	20 75 6e 
  40299d:	48 89 43 08          	mov    %rax,0x8(%rbx)
  4029a1:	48 b8 61 62 6c 65 20 	movabs $0x206f7420656c6261,%rax
  4029a8:	74 6f 20 
  4029ab:	48 89 43 10          	mov    %rax,0x10(%rbx)
  4029af:	48 b8 72 65 61 64 20 	movabs $0x6174732064616572,%rax
  4029b6:	73 74 61 
  4029b9:	48 89 43 18          	mov    %rax,0x18(%rbx)
  4029bd:	48 b8 74 75 73 20 6d 	movabs $0x7373656d20737574,%rax
  4029c4:	65 73 73 
  4029c7:	48 89 43 20          	mov    %rax,0x20(%rbx)
  4029cb:	48 b8 61 67 65 20 66 	movabs $0x6d6f726620656761,%rax
  4029d2:	72 6f 6d 
  4029d5:	48 89 43 28          	mov    %rax,0x28(%rbx)
  4029d9:	48 b8 20 41 75 74 6f 	movabs $0x62616c6f74754120,%rax
  4029e0:	6c 61 62 
  4029e3:	48 89 43 30          	mov    %rax,0x30(%rbx)
  4029e7:	48 b8 20 73 65 72 76 	movabs $0x72657672657320,%rax
  4029ee:	65 72 00 
  4029f1:	48 89 43 38          	mov    %rax,0x38(%rbx)
  4029f5:	89 ef                	mov    %ebp,%edi
  4029f7:	e8 54 e3 ff ff       	callq  400d50 <close@plt>
  4029fc:	b8 ff ff ff ff       	mov    $0xffffffff,%eax
  402a01:	e9 dc 00 00 00       	jmpq   402ae2 <submitr+0x761>
  402a06:	44 8b 44 24 1c       	mov    0x1c(%rsp),%r8d
  402a0b:	41 81 f8 c8 00 00 00 	cmp    $0xc8,%r8d
  402a12:	74 37                	je     402a4b <submitr+0x6ca>
  402a14:	4c 8d 8c 24 40 80 00 	lea    0x8040(%rsp),%r9
  402a1b:	00 
  402a1c:	b9 c8 36 40 00       	mov    $0x4036c8,%ecx
  402a21:	48 c7 c2 ff ff ff ff 	mov    $0xffffffffffffffff,%rdx
  402a28:	be 01 00 00 00       	mov    $0x1,%esi
  402a2d:	48 89 df             	mov    %rbx,%rdi
  402a30:	b8 00 00 00 00       	mov    $0x0,%eax
  402a35:	e8 66 e4 ff ff       	callq  400ea0 <__sprintf_chk@plt>
  402a3a:	89 ef                	mov    %ebp,%edi
  402a3c:	e8 0f e3 ff ff       	callq  400d50 <close@plt>
  402a41:	b8 ff ff ff ff       	mov    $0xffffffff,%eax
  402a46:	e9 97 00 00 00       	jmpq   402ae2 <submitr+0x761>
  402a4b:	48 8d b4 24 40 20 00 	lea    0x2040(%rsp),%rsi
  402a52:	00 
  402a53:	48 89 df             	mov    %rbx,%rdi
  402a56:	e8 85 e2 ff ff       	callq  400ce0 <strcpy@plt>
  402a5b:	89 ef                	mov    %ebp,%edi
  402a5d:	e8 ee e2 ff ff       	callq  400d50 <close@plt>
  402a62:	0f b6 03             	movzbl (%rbx),%eax
  402a65:	ba 4f 00 00 00       	mov    $0x4f,%edx
  402a6a:	29 c2                	sub    %eax,%edx
  402a6c:	75 22                	jne    402a90 <submitr+0x70f>
  402a6e:	0f b6 4b 01          	movzbl 0x1(%rbx),%ecx
  402a72:	b8 4b 00 00 00       	mov    $0x4b,%eax
  402a77:	29 c8                	sub    %ecx,%eax
  402a79:	75 17                	jne    402a92 <submitr+0x711>
  402a7b:	0f b6 4b 02          	movzbl 0x2(%rbx),%ecx
  402a7f:	b8 0a 00 00 00       	mov    $0xa,%eax
  402a84:	29 c8                	sub    %ecx,%eax
  402a86:	75 0a                	jne    402a92 <submitr+0x711>
  402a88:	0f b6 43 03          	movzbl 0x3(%rbx),%eax
  402a8c:	f7 d8                	neg    %eax
  402a8e:	eb 02                	jmp    402a92 <submitr+0x711>
  402a90:	89 d0                	mov    %edx,%eax
  402a92:	85 c0                	test   %eax,%eax
  402a94:	74 40                	je     402ad6 <submitr+0x755>
  402a96:	bf 10 37 40 00       	mov    $0x403710,%edi
  402a9b:	b9 05 00 00 00       	mov    $0x5,%ecx
  402aa0:	48 89 de             	mov    %rbx,%rsi
  402aa3:	f3 a6                	repz cmpsb %es:(%rdi),%ds:(%rsi)
  402aa5:	0f 97 c0             	seta   %al
  402aa8:	0f 92 c1             	setb   %cl
  402aab:	29 c8                	sub    %ecx,%eax
  402aad:	0f be c0             	movsbl %al,%eax
  402ab0:	85 c0                	test   %eax,%eax
  402ab2:	74 2e                	je     402ae2 <submitr+0x761>
  402ab4:	85 d2                	test   %edx,%edx
  402ab6:	75 13                	jne    402acb <submitr+0x74a>
  402ab8:	0f b6 43 01          	movzbl 0x1(%rbx),%eax
  402abc:	ba 4b 00 00 00       	mov    $0x4b,%edx
  402ac1:	29 c2                	sub    %eax,%edx
  402ac3:	75 06                	jne    402acb <submitr+0x74a>
  402ac5:	0f b6 53 02          	movzbl 0x2(%rbx),%edx
  402ac9:	f7 da                	neg    %edx
  402acb:	85 d2                	test   %edx,%edx
  402acd:	75 0e                	jne    402add <submitr+0x75c>
  402acf:	b8 00 00 00 00       	mov    $0x0,%eax
  402ad4:	eb 0c                	jmp    402ae2 <submitr+0x761>
  402ad6:	b8 00 00 00 00       	mov    $0x0,%eax
  402adb:	eb 05                	jmp    402ae2 <submitr+0x761>
  402add:	b8 ff ff ff ff       	mov    $0xffffffff,%eax
  402ae2:	48 8b 9c 24 48 a0 00 	mov    0xa048(%rsp),%rbx
  402ae9:	00 
  402aea:	64 48 33 1c 25 28 00 	xor    %fs:0x28,%rbx
  402af1:	00 00 
  402af3:	74 05                	je     402afa <submitr+0x779>
  402af5:	e8 16 e2 ff ff       	callq  400d10 <__stack_chk_fail@plt>
  402afa:	48 81 c4 58 a0 00 00 	add    $0xa058,%rsp
  402b01:	5b                   	pop    %rbx
  402b02:	5d                   	pop    %rbp
  402b03:	41 5c                	pop    %r12
  402b05:	41 5d                	pop    %r13
  402b07:	41 5e                	pop    %r14
  402b09:	41 5f                	pop    %r15
  402b0b:	c3                   	retq   

0000000000402b0c <init_timeout>:
  402b0c:	85 ff                	test   %edi,%edi
  402b0e:	74 23                	je     402b33 <init_timeout+0x27>
  402b10:	53                   	push   %rbx
  402b11:	89 fb                	mov    %edi,%ebx
  402b13:	85 ff                	test   %edi,%edi
  402b15:	79 05                	jns    402b1c <init_timeout+0x10>
  402b17:	bb 00 00 00 00       	mov    $0x0,%ebx
  402b1c:	be b5 20 40 00       	mov    $0x4020b5,%esi
  402b21:	bf 0e 00 00 00       	mov    $0xe,%edi
  402b26:	e8 55 e2 ff ff       	callq  400d80 <signal@plt>
  402b2b:	89 df                	mov    %ebx,%edi
  402b2d:	e8 0e e2 ff ff       	callq  400d40 <alarm@plt>
  402b32:	5b                   	pop    %rbx
  402b33:	f3 c3                	repz retq 

0000000000402b35 <init_driver>:
  402b35:	55                   	push   %rbp
  402b36:	53                   	push   %rbx
  402b37:	48 83 ec 28          	sub    $0x28,%rsp
  402b3b:	48 89 fd             	mov    %rdi,%rbp
  402b3e:	64 48 8b 04 25 28 00 	mov    %fs:0x28,%rax
  402b45:	00 00 
  402b47:	48 89 44 24 18       	mov    %rax,0x18(%rsp)
  402b4c:	31 c0                	xor    %eax,%eax
  402b4e:	be 01 00 00 00       	mov    $0x1,%esi
  402b53:	bf 0d 00 00 00       	mov    $0xd,%edi
  402b58:	e8 23 e2 ff ff       	callq  400d80 <signal@plt>
  402b5d:	be 01 00 00 00       	mov    $0x1,%esi
  402b62:	bf 1d 00 00 00       	mov    $0x1d,%edi
  402b67:	e8 14 e2 ff ff       	callq  400d80 <signal@plt>
  402b6c:	be 01 00 00 00       	mov    $0x1,%esi
  402b71:	bf 1d 00 00 00       	mov    $0x1d,%edi
  402b76:	e8 05 e2 ff ff       	callq  400d80 <signal@plt>
  402b7b:	ba 00 00 00 00       	mov    $0x0,%edx
  402b80:	be 01 00 00 00       	mov    $0x1,%esi
  402b85:	bf 02 00 00 00       	mov    $0x2,%edi
  402b8a:	e8 21 e3 ff ff       	callq  400eb0 <socket@plt>
  402b8f:	85 c0                	test   %eax,%eax
  402b91:	79 4f                	jns    402be2 <init_driver+0xad>
  402b93:	48 b8 45 72 72 6f 72 	movabs $0x43203a726f727245,%rax
  402b9a:	3a 20 43 
  402b9d:	48 89 45 00          	mov    %rax,0x0(%rbp)
  402ba1:	48 b8 6c 69 65 6e 74 	movabs $0x6e7520746e65696c,%rax
  402ba8:	20 75 6e 
  402bab:	48 89 45 08          	mov    %rax,0x8(%rbp)
  402baf:	48 b8 61 62 6c 65 20 	movabs $0x206f7420656c6261,%rax
  402bb6:	74 6f 20 
  402bb9:	48 89 45 10          	mov    %rax,0x10(%rbp)
  402bbd:	48 b8 63 72 65 61 74 	movabs $0x7320657461657263,%rax
  402bc4:	65 20 73 
  402bc7:	48 89 45 18          	mov    %rax,0x18(%rbp)
  402bcb:	c7 45 20 6f 63 6b 65 	movl   $0x656b636f,0x20(%rbp)
  402bd2:	66 c7 45 24 74 00    	movw   $0x74,0x24(%rbp)
  402bd8:	b8 ff ff ff ff       	mov    $0xffffffff,%eax
  402bdd:	e9 2a 01 00 00       	jmpq   402d0c <init_driver+0x1d7>
  402be2:	89 c3                	mov    %eax,%ebx
  402be4:	bf 35 32 40 00       	mov    $0x403235,%edi
  402be9:	e8 a2 e1 ff ff       	callq  400d90 <gethostbyname@plt>
  402bee:	48 85 c0             	test   %rax,%rax
  402bf1:	75 68                	jne    402c5b <init_driver+0x126>
  402bf3:	48 b8 45 72 72 6f 72 	movabs $0x44203a726f727245,%rax
  402bfa:	3a 20 44 
  402bfd:	48 89 45 00          	mov    %rax,0x0(%rbp)
  402c01:	48 b8 4e 53 20 69 73 	movabs $0x6e7520736920534e,%rax
  402c08:	20 75 6e 
  402c0b:	48 89 45 08          	mov    %rax,0x8(%rbp)
  402c0f:	48 b8 61 62 6c 65 20 	movabs $0x206f7420656c6261,%rax
  402c16:	74 6f 20 
  402c19:	48 89 45 10          	mov    %rax,0x10(%rbp)
  402c1d:	48 b8 72 65 73 6f 6c 	movabs $0x2065766c6f736572,%rax
  402c24:	76 65 20 
  402c27:	48 89 45 18          	mov    %rax,0x18(%rbp)
  402c2b:	48 b8 73 65 72 76 65 	movabs $0x6120726576726573,%rax
  402c32:	72 20 61 
  402c35:	48 89 45 20          	mov    %rax,0x20(%rbp)
  402c39:	c7 45 28 64 64 72 65 	movl   $0x65726464,0x28(%rbp)
  402c40:	66 c7 45 2c 73 73    	movw   $0x7373,0x2c(%rbp)
  402c46:	c6 45 2e 00          	movb   $0x0,0x2e(%rbp)
  402c4a:	89 df                	mov    %ebx,%edi
  402c4c:	e8 ff e0 ff ff       	callq  400d50 <close@plt>
  402c51:	b8 ff ff ff ff       	mov    $0xffffffff,%eax
  402c56:	e9 b1 00 00 00       	jmpq   402d0c <init_driver+0x1d7>
  402c5b:	48 c7 04 24 00 00 00 	movq   $0x0,(%rsp)
  402c62:	00 
  402c63:	48 c7 44 24 08 00 00 	movq   $0x0,0x8(%rsp)
  402c6a:	00 00 
  402c6c:	66 c7 04 24 02 00    	movw   $0x2,(%rsp)
  402c72:	48 63 50 14          	movslq 0x14(%rax),%rdx
  402c76:	48 8b 40 18          	mov    0x18(%rax),%rax
  402c7a:	48 8b 30             	mov    (%rax),%rsi
  402c7d:	48 8d 7c 24 04       	lea    0x4(%rsp),%rdi
  402c82:	b9 0c 00 00 00       	mov    $0xc,%ecx
  402c87:	e8 14 e1 ff ff       	callq  400da0 <__memmove_chk@plt>
  402c8c:	66 c7 44 24 02 00 50 	movw   $0x5000,0x2(%rsp)
  402c93:	ba 10 00 00 00       	mov    $0x10,%edx
  402c98:	48 89 e6             	mov    %rsp,%rsi
  402c9b:	89 df                	mov    %ebx,%edi
  402c9d:	e8 de e1 ff ff       	callq  400e80 <connect@plt>
  402ca2:	85 c0                	test   %eax,%eax
  402ca4:	79 50                	jns    402cf6 <init_driver+0x1c1>
  402ca6:	48 b8 45 72 72 6f 72 	movabs $0x55203a726f727245,%rax
  402cad:	3a 20 55 
  402cb0:	48 89 45 00          	mov    %rax,0x0(%rbp)
  402cb4:	48 b8 6e 61 62 6c 65 	movabs $0x6f7420656c62616e,%rax
  402cbb:	20 74 6f 
  402cbe:	48 89 45 08          	mov    %rax,0x8(%rbp)
  402cc2:	48 b8 20 63 6f 6e 6e 	movabs $0x7463656e6e6f6320,%rax
  402cc9:	65 63 74 
  402ccc:	48 89 45 10          	mov    %rax,0x10(%rbp)
  402cd0:	48 b8 20 74 6f 20 73 	movabs $0x76726573206f7420,%rax
  402cd7:	65 72 76 
  402cda:	48 89 45 18          	mov    %rax,0x18(%rbp)
  402cde:	66 c7 45 20 65 72    	movw   $0x7265,0x20(%rbp)
  402ce4:	c6 45 22 00          	movb   $0x0,0x22(%rbp)
  402ce8:	89 df                	mov    %ebx,%edi
  402cea:	e8 61 e0 ff ff       	callq  400d50 <close@plt>
  402cef:	b8 ff ff ff ff       	mov    $0xffffffff,%eax
  402cf4:	eb 16                	jmp    402d0c <init_driver+0x1d7>
  402cf6:	89 df                	mov    %ebx,%edi
  402cf8:	e8 53 e0 ff ff       	callq  400d50 <close@plt>
  402cfd:	66 c7 45 00 4f 4b    	movw   $0x4b4f,0x0(%rbp)
  402d03:	c6 45 02 00          	movb   $0x0,0x2(%rbp)
  402d07:	b8 00 00 00 00       	mov    $0x0,%eax
  402d0c:	48 8b 4c 24 18       	mov    0x18(%rsp),%rcx
  402d11:	64 48 33 0c 25 28 00 	xor    %fs:0x28,%rcx
  402d18:	00 00 
  402d1a:	74 05                	je     402d21 <init_driver+0x1ec>
  402d1c:	e8 ef df ff ff       	callq  400d10 <__stack_chk_fail@plt>
  402d21:	48 83 c4 28          	add    $0x28,%rsp
  402d25:	5b                   	pop    %rbx
  402d26:	5d                   	pop    %rbp
  402d27:	c3                   	retq   

0000000000402d28 <driver_post>:
  402d28:	53                   	push   %rbx
  402d29:	4c 89 cb             	mov    %r9,%rbx
  402d2c:	45 85 c0             	test   %r8d,%r8d
  402d2f:	74 27                	je     402d58 <driver_post+0x30>
  402d31:	48 89 ca             	mov    %rcx,%rdx
  402d34:	be 15 37 40 00       	mov    $0x403715,%esi
  402d39:	bf 01 00 00 00       	mov    $0x1,%edi
  402d3e:	b8 00 00 00 00       	mov    $0x0,%eax
  402d43:	e8 d8 e0 ff ff       	callq  400e20 <__printf_chk@plt>
  402d48:	66 c7 03 4f 4b       	movw   $0x4b4f,(%rbx)
  402d4d:	c6 43 02 00          	movb   $0x0,0x2(%rbx)
  402d51:	b8 00 00 00 00       	mov    $0x0,%eax
  402d56:	eb 3f                	jmp    402d97 <driver_post+0x6f>
  402d58:	48 85 ff             	test   %rdi,%rdi
  402d5b:	74 2c                	je     402d89 <driver_post+0x61>
  402d5d:	80 3f 00             	cmpb   $0x0,(%rdi)
  402d60:	74 27                	je     402d89 <driver_post+0x61>
  402d62:	48 83 ec 08          	sub    $0x8,%rsp
  402d66:	41 51                	push   %r9
  402d68:	49 89 c9             	mov    %rcx,%r9
  402d6b:	49 89 d0             	mov    %rdx,%r8
  402d6e:	48 89 f9             	mov    %rdi,%rcx
  402d71:	48 89 f2             	mov    %rsi,%rdx
  402d74:	be 50 00 00 00       	mov    $0x50,%esi
  402d79:	bf 35 32 40 00       	mov    $0x403235,%edi
  402d7e:	e8 fe f5 ff ff       	callq  402381 <submitr>
  402d83:	48 83 c4 10          	add    $0x10,%rsp
  402d87:	eb 0e                	jmp    402d97 <driver_post+0x6f>
  402d89:	66 c7 03 4f 4b       	movw   $0x4b4f,(%rbx)
  402d8e:	c6 43 02 00          	movb   $0x0,0x2(%rbx)
  402d92:	b8 00 00 00 00       	mov    $0x0,%eax
  402d97:	5b                   	pop    %rbx
  402d98:	c3                   	retq   

0000000000402d99 <check>:
  402d99:	89 f8                	mov    %edi,%eax
  402d9b:	c1 e8 1c             	shr    $0x1c,%eax
  402d9e:	85 c0                	test   %eax,%eax
  402da0:	74 1d                	je     402dbf <check+0x26>
  402da2:	b9 00 00 00 00       	mov    $0x0,%ecx
  402da7:	eb 0b                	jmp    402db4 <check+0x1b>
  402da9:	89 f8                	mov    %edi,%eax
  402dab:	d3 e8                	shr    %cl,%eax
  402dad:	3c 0a                	cmp    $0xa,%al
  402daf:	74 14                	je     402dc5 <check+0x2c>
  402db1:	83 c1 08             	add    $0x8,%ecx
  402db4:	83 f9 1f             	cmp    $0x1f,%ecx
  402db7:	7e f0                	jle    402da9 <check+0x10>
  402db9:	b8 01 00 00 00       	mov    $0x1,%eax
  402dbe:	c3                   	retq   
  402dbf:	b8 00 00 00 00       	mov    $0x0,%eax
  402dc4:	c3                   	retq   
  402dc5:	b8 00 00 00 00       	mov    $0x0,%eax
  402dca:	c3                   	retq   

0000000000402dcb <gencookie>:
  402dcb:	53                   	push   %rbx
  402dcc:	83 c7 01             	add    $0x1,%edi
  402dcf:	e8 ec de ff ff       	callq  400cc0 <srandom@plt>
  402dd4:	e8 07 e0 ff ff       	callq  400de0 <random@plt>
  402dd9:	89 c3                	mov    %eax,%ebx
  402ddb:	89 c7                	mov    %eax,%edi
  402ddd:	e8 b7 ff ff ff       	callq  402d99 <check>
  402de2:	85 c0                	test   %eax,%eax
  402de4:	74 ee                	je     402dd4 <gencookie+0x9>
  402de6:	89 d8                	mov    %ebx,%eax
  402de8:	5b                   	pop    %rbx
  402de9:	c3                   	retq   
  402dea:	66 0f 1f 44 00 00    	nopw   0x0(%rax,%rax,1)

0000000000402df0 <__libc_csu_init>:
  402df0:	41 57                	push   %r15
  402df2:	41 56                	push   %r14
  402df4:	41 89 ff             	mov    %edi,%r15d
  402df7:	41 55                	push   %r13
  402df9:	41 54                	push   %r12
  402dfb:	4c 8d 25 fe 1f 20 00 	lea    0x201ffe(%rip),%r12        # 604e00 <__frame_dummy_init_array_entry>
  402e02:	55                   	push   %rbp
  402e03:	48 8d 2d fe 1f 20 00 	lea    0x201ffe(%rip),%rbp        # 604e08 <__init_array_end>
  402e0a:	53                   	push   %rbx
  402e0b:	49 89 f6             	mov    %rsi,%r14
  402e0e:	49 89 d5             	mov    %rdx,%r13
  402e11:	4c 29 e5             	sub    %r12,%rbp
  402e14:	48 83 ec 08          	sub    $0x8,%rsp
  402e18:	48 c1 fd 03          	sar    $0x3,%rbp
  402e1c:	e8 47 de ff ff       	callq  400c68 <_init>
  402e21:	48 85 ed             	test   %rbp,%rbp
  402e24:	74 20                	je     402e46 <__libc_csu_init+0x56>
  402e26:	31 db                	xor    %ebx,%ebx
  402e28:	0f 1f 84 00 00 00 00 	nopl   0x0(%rax,%rax,1)
  402e2f:	00 
  402e30:	4c 89 ea             	mov    %r13,%rdx
  402e33:	4c 89 f6             	mov    %r14,%rsi
  402e36:	44 89 ff             	mov    %r15d,%edi
  402e39:	41 ff 14 dc          	callq  *(%r12,%rbx,8)
  402e3d:	48 83 c3 01          	add    $0x1,%rbx
  402e41:	48 39 eb             	cmp    %rbp,%rbx
  402e44:	75 ea                	jne    402e30 <__libc_csu_init+0x40>
  402e46:	48 83 c4 08          	add    $0x8,%rsp
  402e4a:	5b                   	pop    %rbx
  402e4b:	5d                   	pop    %rbp
  402e4c:	41 5c                	pop    %r12
  402e4e:	41 5d                	pop    %r13
  402e50:	41 5e                	pop    %r14
  402e52:	41 5f                	pop    %r15
  402e54:	c3                   	retq   
  402e55:	90                   	nop
  402e56:	66 2e 0f 1f 84 00 00 	nopw   %cs:0x0(%rax,%rax,1)
  402e5d:	00 00 00 

0000000000402e60 <__libc_csu_fini>:
  402e60:	f3 c3                	repz retq 

Disassembly of section .fini:

0000000000402e64 <_fini>:
  402e64:	48 83 ec 08          	sub    $0x8,%rsp
  402e68:	48 83 c4 08          	add    $0x8,%rsp
  402e6c:	c3                   	retq   
