
rtarget:     file format elf64-x86-64


Disassembly of section .init:

0000000000400c68 <_init>:
  400c68:	48 83 ec 08          	sub    $0x8,%rsp
  400c6c:	48 8b 05 85 43 20 00 	mov    0x204385(%rip),%rax        # 604ff8 <_DYNAMIC+0x1e0>
  400c73:	48 85 c0             	test   %rax,%rax
  400c76:	74 05                	je     400c7d <_init+0x15>
  400c78:	e8 43 02 00 00       	callq  400ec0 <socket@plt+0x10>
  400c7d:	48 83 c4 08          	add    $0x8,%rsp
  400c81:	c3                   	retq   

Disassembly of section .plt:

0000000000400c90 <strcasecmp@plt-0x10>:
  400c90:	ff 35 72 43 20 00    	pushq  0x204372(%rip)        # 605008 <_GLOBAL_OFFSET_TABLE_+0x8>
  400c96:	ff 25 74 43 20 00    	jmpq   *0x204374(%rip)        # 605010 <_GLOBAL_OFFSET_TABLE_+0x10>
  400c9c:	0f 1f 40 00          	nopl   0x0(%rax)

0000000000400ca0 <strcasecmp@plt>:
  400ca0:	ff 25 72 43 20 00    	jmpq   *0x204372(%rip)        # 605018 <_GLOBAL_OFFSET_TABLE_+0x18>
  400ca6:	68 00 00 00 00       	pushq  $0x0
  400cab:	e9 e0 ff ff ff       	jmpq   400c90 <_init+0x28>

0000000000400cb0 <__errno_location@plt>:
  400cb0:	ff 25 6a 43 20 00    	jmpq   *0x20436a(%rip)        # 605020 <_GLOBAL_OFFSET_TABLE_+0x20>
  400cb6:	68 01 00 00 00       	pushq  $0x1
  400cbb:	e9 d0 ff ff ff       	jmpq   400c90 <_init+0x28>

0000000000400cc0 <srandom@plt>:
  400cc0:	ff 25 62 43 20 00    	jmpq   *0x204362(%rip)        # 605028 <_GLOBAL_OFFSET_TABLE_+0x28>
  400cc6:	68 02 00 00 00       	pushq  $0x2
  400ccb:	e9 c0 ff ff ff       	jmpq   400c90 <_init+0x28>

0000000000400cd0 <strncmp@plt>:
  400cd0:	ff 25 5a 43 20 00    	jmpq   *0x20435a(%rip)        # 605030 <_GLOBAL_OFFSET_TABLE_+0x30>
  400cd6:	68 03 00 00 00       	pushq  $0x3
  400cdb:	e9 b0 ff ff ff       	jmpq   400c90 <_init+0x28>

0000000000400ce0 <strcpy@plt>:
  400ce0:	ff 25 52 43 20 00    	jmpq   *0x204352(%rip)        # 605038 <_GLOBAL_OFFSET_TABLE_+0x38>
  400ce6:	68 04 00 00 00       	pushq  $0x4
  400ceb:	e9 a0 ff ff ff       	jmpq   400c90 <_init+0x28>

0000000000400cf0 <puts@plt>:
  400cf0:	ff 25 4a 43 20 00    	jmpq   *0x20434a(%rip)        # 605040 <_GLOBAL_OFFSET_TABLE_+0x40>
  400cf6:	68 05 00 00 00       	pushq  $0x5
  400cfb:	e9 90 ff ff ff       	jmpq   400c90 <_init+0x28>

0000000000400d00 <write@plt>:
  400d00:	ff 25 42 43 20 00    	jmpq   *0x204342(%rip)        # 605048 <_GLOBAL_OFFSET_TABLE_+0x48>
  400d06:	68 06 00 00 00       	pushq  $0x6
  400d0b:	e9 80 ff ff ff       	jmpq   400c90 <_init+0x28>

0000000000400d10 <__stack_chk_fail@plt>:
  400d10:	ff 25 3a 43 20 00    	jmpq   *0x20433a(%rip)        # 605050 <_GLOBAL_OFFSET_TABLE_+0x50>
  400d16:	68 07 00 00 00       	pushq  $0x7
  400d1b:	e9 70 ff ff ff       	jmpq   400c90 <_init+0x28>

0000000000400d20 <mmap@plt>:
  400d20:	ff 25 32 43 20 00    	jmpq   *0x204332(%rip)        # 605058 <_GLOBAL_OFFSET_TABLE_+0x58>
  400d26:	68 08 00 00 00       	pushq  $0x8
  400d2b:	e9 60 ff ff ff       	jmpq   400c90 <_init+0x28>

0000000000400d30 <memset@plt>:
  400d30:	ff 25 2a 43 20 00    	jmpq   *0x20432a(%rip)        # 605060 <_GLOBAL_OFFSET_TABLE_+0x60>
  400d36:	68 09 00 00 00       	pushq  $0x9
  400d3b:	e9 50 ff ff ff       	jmpq   400c90 <_init+0x28>

0000000000400d40 <alarm@plt>:
  400d40:	ff 25 22 43 20 00    	jmpq   *0x204322(%rip)        # 605068 <_GLOBAL_OFFSET_TABLE_+0x68>
  400d46:	68 0a 00 00 00       	pushq  $0xa
  400d4b:	e9 40 ff ff ff       	jmpq   400c90 <_init+0x28>

0000000000400d50 <close@plt>:
  400d50:	ff 25 1a 43 20 00    	jmpq   *0x20431a(%rip)        # 605070 <_GLOBAL_OFFSET_TABLE_+0x70>
  400d56:	68 0b 00 00 00       	pushq  $0xb
  400d5b:	e9 30 ff ff ff       	jmpq   400c90 <_init+0x28>

0000000000400d60 <read@plt>:
  400d60:	ff 25 12 43 20 00    	jmpq   *0x204312(%rip)        # 605078 <_GLOBAL_OFFSET_TABLE_+0x78>
  400d66:	68 0c 00 00 00       	pushq  $0xc
  400d6b:	e9 20 ff ff ff       	jmpq   400c90 <_init+0x28>

0000000000400d70 <__libc_start_main@plt>:
  400d70:	ff 25 0a 43 20 00    	jmpq   *0x20430a(%rip)        # 605080 <_GLOBAL_OFFSET_TABLE_+0x80>
  400d76:	68 0d 00 00 00       	pushq  $0xd
  400d7b:	e9 10 ff ff ff       	jmpq   400c90 <_init+0x28>

0000000000400d80 <signal@plt>:
  400d80:	ff 25 02 43 20 00    	jmpq   *0x204302(%rip)        # 605088 <_GLOBAL_OFFSET_TABLE_+0x88>
  400d86:	68 0e 00 00 00       	pushq  $0xe
  400d8b:	e9 00 ff ff ff       	jmpq   400c90 <_init+0x28>

0000000000400d90 <gethostbyname@plt>:
  400d90:	ff 25 fa 42 20 00    	jmpq   *0x2042fa(%rip)        # 605090 <_GLOBAL_OFFSET_TABLE_+0x90>
  400d96:	68 0f 00 00 00       	pushq  $0xf
  400d9b:	e9 f0 fe ff ff       	jmpq   400c90 <_init+0x28>

0000000000400da0 <__memmove_chk@plt>:
  400da0:	ff 25 f2 42 20 00    	jmpq   *0x2042f2(%rip)        # 605098 <_GLOBAL_OFFSET_TABLE_+0x98>
  400da6:	68 10 00 00 00       	pushq  $0x10
  400dab:	e9 e0 fe ff ff       	jmpq   400c90 <_init+0x28>

0000000000400db0 <strtol@plt>:
  400db0:	ff 25 ea 42 20 00    	jmpq   *0x2042ea(%rip)        # 6050a0 <_GLOBAL_OFFSET_TABLE_+0xa0>
  400db6:	68 11 00 00 00       	pushq  $0x11
  400dbb:	e9 d0 fe ff ff       	jmpq   400c90 <_init+0x28>

0000000000400dc0 <memcpy@plt>:
  400dc0:	ff 25 e2 42 20 00    	jmpq   *0x2042e2(%rip)        # 6050a8 <_GLOBAL_OFFSET_TABLE_+0xa8>
  400dc6:	68 12 00 00 00       	pushq  $0x12
  400dcb:	e9 c0 fe ff ff       	jmpq   400c90 <_init+0x28>

0000000000400dd0 <time@plt>:
  400dd0:	ff 25 da 42 20 00    	jmpq   *0x2042da(%rip)        # 6050b0 <_GLOBAL_OFFSET_TABLE_+0xb0>
  400dd6:	68 13 00 00 00       	pushq  $0x13
  400ddb:	e9 b0 fe ff ff       	jmpq   400c90 <_init+0x28>

0000000000400de0 <random@plt>:
  400de0:	ff 25 d2 42 20 00    	jmpq   *0x2042d2(%rip)        # 6050b8 <_GLOBAL_OFFSET_TABLE_+0xb8>
  400de6:	68 14 00 00 00       	pushq  $0x14
  400deb:	e9 a0 fe ff ff       	jmpq   400c90 <_init+0x28>

0000000000400df0 <_IO_getc@plt>:
  400df0:	ff 25 ca 42 20 00    	jmpq   *0x2042ca(%rip)        # 6050c0 <_GLOBAL_OFFSET_TABLE_+0xc0>
  400df6:	68 15 00 00 00       	pushq  $0x15
  400dfb:	e9 90 fe ff ff       	jmpq   400c90 <_init+0x28>

0000000000400e00 <__isoc99_sscanf@plt>:
  400e00:	ff 25 c2 42 20 00    	jmpq   *0x2042c2(%rip)        # 6050c8 <_GLOBAL_OFFSET_TABLE_+0xc8>
  400e06:	68 16 00 00 00       	pushq  $0x16
  400e0b:	e9 80 fe ff ff       	jmpq   400c90 <_init+0x28>

0000000000400e10 <munmap@plt>:
  400e10:	ff 25 ba 42 20 00    	jmpq   *0x2042ba(%rip)        # 6050d0 <_GLOBAL_OFFSET_TABLE_+0xd0>
  400e16:	68 17 00 00 00       	pushq  $0x17
  400e1b:	e9 70 fe ff ff       	jmpq   400c90 <_init+0x28>

0000000000400e20 <__printf_chk@plt>:
  400e20:	ff 25 b2 42 20 00    	jmpq   *0x2042b2(%rip)        # 6050d8 <_GLOBAL_OFFSET_TABLE_+0xd8>
  400e26:	68 18 00 00 00       	pushq  $0x18
  400e2b:	e9 60 fe ff ff       	jmpq   400c90 <_init+0x28>

0000000000400e30 <fopen@plt>:
  400e30:	ff 25 aa 42 20 00    	jmpq   *0x2042aa(%rip)        # 6050e0 <_GLOBAL_OFFSET_TABLE_+0xe0>
  400e36:	68 19 00 00 00       	pushq  $0x19
  400e3b:	e9 50 fe ff ff       	jmpq   400c90 <_init+0x28>

0000000000400e40 <getopt@plt>:
  400e40:	ff 25 a2 42 20 00    	jmpq   *0x2042a2(%rip)        # 6050e8 <_GLOBAL_OFFSET_TABLE_+0xe8>
  400e46:	68 1a 00 00 00       	pushq  $0x1a
  400e4b:	e9 40 fe ff ff       	jmpq   400c90 <_init+0x28>

0000000000400e50 <strtoul@plt>:
  400e50:	ff 25 9a 42 20 00    	jmpq   *0x20429a(%rip)        # 6050f0 <_GLOBAL_OFFSET_TABLE_+0xf0>
  400e56:	68 1b 00 00 00       	pushq  $0x1b
  400e5b:	e9 30 fe ff ff       	jmpq   400c90 <_init+0x28>

0000000000400e60 <gethostname@plt>:
  400e60:	ff 25 92 42 20 00    	jmpq   *0x204292(%rip)        # 6050f8 <_GLOBAL_OFFSET_TABLE_+0xf8>
  400e66:	68 1c 00 00 00       	pushq  $0x1c
  400e6b:	e9 20 fe ff ff       	jmpq   400c90 <_init+0x28>

0000000000400e70 <exit@plt>:
  400e70:	ff 25 8a 42 20 00    	jmpq   *0x20428a(%rip)        # 605100 <_GLOBAL_OFFSET_TABLE_+0x100>
  400e76:	68 1d 00 00 00       	pushq  $0x1d
  400e7b:	e9 10 fe ff ff       	jmpq   400c90 <_init+0x28>

0000000000400e80 <connect@plt>:
  400e80:	ff 25 82 42 20 00    	jmpq   *0x204282(%rip)        # 605108 <_GLOBAL_OFFSET_TABLE_+0x108>
  400e86:	68 1e 00 00 00       	pushq  $0x1e
  400e8b:	e9 00 fe ff ff       	jmpq   400c90 <_init+0x28>

0000000000400e90 <__fprintf_chk@plt>:
  400e90:	ff 25 7a 42 20 00    	jmpq   *0x20427a(%rip)        # 605110 <_GLOBAL_OFFSET_TABLE_+0x110>
  400e96:	68 1f 00 00 00       	pushq  $0x1f
  400e9b:	e9 f0 fd ff ff       	jmpq   400c90 <_init+0x28>

0000000000400ea0 <__sprintf_chk@plt>:
  400ea0:	ff 25 72 42 20 00    	jmpq   *0x204272(%rip)        # 605118 <_GLOBAL_OFFSET_TABLE_+0x118>
  400ea6:	68 20 00 00 00       	pushq  $0x20
  400eab:	e9 e0 fd ff ff       	jmpq   400c90 <_init+0x28>

0000000000400eb0 <socket@plt>:
  400eb0:	ff 25 6a 42 20 00    	jmpq   *0x20426a(%rip)        # 605120 <_GLOBAL_OFFSET_TABLE_+0x120>
  400eb6:	68 21 00 00 00       	pushq  $0x21
  400ebb:	e9 d0 fd ff ff       	jmpq   400c90 <_init+0x28>

Disassembly of section .plt.got:

0000000000400ec0 <.plt.got>:
  400ec0:	ff 25 32 41 20 00    	jmpq   *0x204132(%rip)        # 604ff8 <_DYNAMIC+0x1e0>
  400ec6:	66 90                	xchg   %ax,%ax

Disassembly of section .text:

0000000000400ed0 <_start>:
  400ed0:	31 ed                	xor    %ebp,%ebp
  400ed2:	49 89 d1             	mov    %rdx,%r9
  400ed5:	5e                   	pop    %rsi
  400ed6:	48 89 e2             	mov    %rsp,%rdx
  400ed9:	48 83 e4 f0          	and    $0xfffffffffffffff0,%rsp
  400edd:	50                   	push   %rax
  400ede:	54                   	push   %rsp
  400edf:	49 c7 c0 80 2f 40 00 	mov    $0x402f80,%r8
  400ee6:	48 c7 c1 10 2f 40 00 	mov    $0x402f10,%rcx
  400eed:	48 c7 c7 d5 11 40 00 	mov    $0x4011d5,%rdi
  400ef4:	e8 77 fe ff ff       	callq  400d70 <__libc_start_main@plt>
  400ef9:	f4                   	hlt    
  400efa:	66 0f 1f 44 00 00    	nopw   0x0(%rax,%rax,1)

0000000000400f00 <deregister_tm_clones>:
  400f00:	b8 b7 54 60 00       	mov    $0x6054b7,%eax
  400f05:	55                   	push   %rbp
  400f06:	48 2d b0 54 60 00    	sub    $0x6054b0,%rax
  400f0c:	48 83 f8 0e          	cmp    $0xe,%rax
  400f10:	48 89 e5             	mov    %rsp,%rbp
  400f13:	76 1b                	jbe    400f30 <deregister_tm_clones+0x30>
  400f15:	b8 00 00 00 00       	mov    $0x0,%eax
  400f1a:	48 85 c0             	test   %rax,%rax
  400f1d:	74 11                	je     400f30 <deregister_tm_clones+0x30>
  400f1f:	5d                   	pop    %rbp
  400f20:	bf b0 54 60 00       	mov    $0x6054b0,%edi
  400f25:	ff e0                	jmpq   *%rax
  400f27:	66 0f 1f 84 00 00 00 	nopw   0x0(%rax,%rax,1)
  400f2e:	00 00 
  400f30:	5d                   	pop    %rbp
  400f31:	c3                   	retq   
  400f32:	0f 1f 40 00          	nopl   0x0(%rax)
  400f36:	66 2e 0f 1f 84 00 00 	nopw   %cs:0x0(%rax,%rax,1)
  400f3d:	00 00 00 

0000000000400f40 <register_tm_clones>:
  400f40:	be b0 54 60 00       	mov    $0x6054b0,%esi
  400f45:	55                   	push   %rbp
  400f46:	48 81 ee b0 54 60 00 	sub    $0x6054b0,%rsi
  400f4d:	48 c1 fe 03          	sar    $0x3,%rsi
  400f51:	48 89 e5             	mov    %rsp,%rbp
  400f54:	48 89 f0             	mov    %rsi,%rax
  400f57:	48 c1 e8 3f          	shr    $0x3f,%rax
  400f5b:	48 01 c6             	add    %rax,%rsi
  400f5e:	48 d1 fe             	sar    %rsi
  400f61:	74 15                	je     400f78 <register_tm_clones+0x38>
  400f63:	b8 00 00 00 00       	mov    $0x0,%eax
  400f68:	48 85 c0             	test   %rax,%rax
  400f6b:	74 0b                	je     400f78 <register_tm_clones+0x38>
  400f6d:	5d                   	pop    %rbp
  400f6e:	bf b0 54 60 00       	mov    $0x6054b0,%edi
  400f73:	ff e0                	jmpq   *%rax
  400f75:	0f 1f 00             	nopl   (%rax)
  400f78:	5d                   	pop    %rbp
  400f79:	c3                   	retq   
  400f7a:	66 0f 1f 44 00 00    	nopw   0x0(%rax,%rax,1)

0000000000400f80 <__do_global_dtors_aux>:
  400f80:	80 3d 61 45 20 00 00 	cmpb   $0x0,0x204561(%rip)        # 6054e8 <completed.7594>
  400f87:	75 11                	jne    400f9a <__do_global_dtors_aux+0x1a>
  400f89:	55                   	push   %rbp
  400f8a:	48 89 e5             	mov    %rsp,%rbp
  400f8d:	e8 6e ff ff ff       	callq  400f00 <deregister_tm_clones>
  400f92:	5d                   	pop    %rbp
  400f93:	c6 05 4e 45 20 00 01 	movb   $0x1,0x20454e(%rip)        # 6054e8 <completed.7594>
  400f9a:	f3 c3                	repz retq 
  400f9c:	0f 1f 40 00          	nopl   0x0(%rax)

0000000000400fa0 <frame_dummy>:
  400fa0:	bf 10 4e 60 00       	mov    $0x604e10,%edi
  400fa5:	48 83 3f 00          	cmpq   $0x0,(%rdi)
  400fa9:	75 05                	jne    400fb0 <frame_dummy+0x10>
  400fab:	eb 93                	jmp    400f40 <register_tm_clones>
  400fad:	0f 1f 00             	nopl   (%rax)
  400fb0:	b8 00 00 00 00       	mov    $0x0,%eax
  400fb5:	48 85 c0             	test   %rax,%rax
  400fb8:	74 f1                	je     400fab <frame_dummy+0xb>
  400fba:	55                   	push   %rbp
  400fbb:	48 89 e5             	mov    %rsp,%rbp
  400fbe:	ff d0                	callq  *%rax
  400fc0:	5d                   	pop    %rbp
  400fc1:	e9 7a ff ff ff       	jmpq   400f40 <register_tm_clones>

0000000000400fc6 <usage>:
  400fc6:	48 83 ec 08          	sub    $0x8,%rsp
  400fca:	48 89 fa             	mov    %rdi,%rdx
  400fcd:	83 3d 54 45 20 00 00 	cmpl   $0x0,0x204554(%rip)        # 605528 <is_checker>
  400fd4:	74 3e                	je     401014 <usage+0x4e>
  400fd6:	be 98 2f 40 00       	mov    $0x402f98,%esi
  400fdb:	bf 01 00 00 00       	mov    $0x1,%edi
  400fe0:	b8 00 00 00 00       	mov    $0x0,%eax
  400fe5:	e8 36 fe ff ff       	callq  400e20 <__printf_chk@plt>
  400fea:	bf d0 2f 40 00       	mov    $0x402fd0,%edi
  400fef:	e8 fc fc ff ff       	callq  400cf0 <puts@plt>
  400ff4:	bf 48 31 40 00       	mov    $0x403148,%edi
  400ff9:	e8 f2 fc ff ff       	callq  400cf0 <puts@plt>
  400ffe:	bf f8 2f 40 00       	mov    $0x402ff8,%edi
  401003:	e8 e8 fc ff ff       	callq  400cf0 <puts@plt>
  401008:	bf 62 31 40 00       	mov    $0x403162,%edi
  40100d:	e8 de fc ff ff       	callq  400cf0 <puts@plt>
  401012:	eb 32                	jmp    401046 <usage+0x80>
  401014:	be 7e 31 40 00       	mov    $0x40317e,%esi
  401019:	bf 01 00 00 00       	mov    $0x1,%edi
  40101e:	b8 00 00 00 00       	mov    $0x0,%eax
  401023:	e8 f8 fd ff ff       	callq  400e20 <__printf_chk@plt>
  401028:	bf 20 30 40 00       	mov    $0x403020,%edi
  40102d:	e8 be fc ff ff       	callq  400cf0 <puts@plt>
  401032:	bf 48 30 40 00       	mov    $0x403048,%edi
  401037:	e8 b4 fc ff ff       	callq  400cf0 <puts@plt>
  40103c:	bf 9c 31 40 00       	mov    $0x40319c,%edi
  401041:	e8 aa fc ff ff       	callq  400cf0 <puts@plt>
  401046:	bf 00 00 00 00       	mov    $0x0,%edi
  40104b:	e8 20 fe ff ff       	callq  400e70 <exit@plt>

0000000000401050 <initialize_target>:
  401050:	55                   	push   %rbp
  401051:	53                   	push   %rbx
  401052:	48 81 ec 18 21 00 00 	sub    $0x2118,%rsp
  401059:	89 f5                	mov    %esi,%ebp
  40105b:	64 48 8b 04 25 28 00 	mov    %fs:0x28,%rax
  401062:	00 00 
  401064:	48 89 84 24 08 21 00 	mov    %rax,0x2108(%rsp)
  40106b:	00 
  40106c:	31 c0                	xor    %eax,%eax
  40106e:	89 3d a4 44 20 00    	mov    %edi,0x2044a4(%rip)        # 605518 <check_level>
  401074:	8b 3d ee 40 20 00    	mov    0x2040ee(%rip),%edi        # 605168 <target_id>
  40107a:	e8 70 1e 00 00       	callq  402eef <gencookie>
  40107f:	89 05 9f 44 20 00    	mov    %eax,0x20449f(%rip)        # 605524 <cookie>
  401085:	89 c7                	mov    %eax,%edi
  401087:	e8 63 1e 00 00       	callq  402eef <gencookie>
  40108c:	89 05 8e 44 20 00    	mov    %eax,0x20448e(%rip)        # 605520 <authkey>
  401092:	8b 05 d0 40 20 00    	mov    0x2040d0(%rip),%eax        # 605168 <target_id>
  401098:	8d 78 01             	lea    0x1(%rax),%edi
  40109b:	e8 20 fc ff ff       	callq  400cc0 <srandom@plt>
  4010a0:	e8 3b fd ff ff       	callq  400de0 <random@plt>
  4010a5:	89 c7                	mov    %eax,%edi
  4010a7:	e8 03 03 00 00       	callq  4013af <scramble>
  4010ac:	89 c3                	mov    %eax,%ebx
  4010ae:	85 ed                	test   %ebp,%ebp
  4010b0:	74 18                	je     4010ca <initialize_target+0x7a>
  4010b2:	bf 00 00 00 00       	mov    $0x0,%edi
  4010b7:	e8 14 fd ff ff       	callq  400dd0 <time@plt>
  4010bc:	89 c7                	mov    %eax,%edi
  4010be:	e8 fd fb ff ff       	callq  400cc0 <srandom@plt>
  4010c3:	e8 18 fd ff ff       	callq  400de0 <random@plt>
  4010c8:	eb 05                	jmp    4010cf <initialize_target+0x7f>
  4010ca:	b8 00 00 00 00       	mov    $0x0,%eax
  4010cf:	01 c3                	add    %eax,%ebx
  4010d1:	0f b7 db             	movzwl %bx,%ebx
  4010d4:	8d 04 dd 00 01 00 00 	lea    0x100(,%rbx,8),%eax
  4010db:	89 c0                	mov    %eax,%eax
  4010dd:	48 89 05 bc 43 20 00 	mov    %rax,0x2043bc(%rip)        # 6054a0 <buf_offset>
  4010e4:	c6 05 5d 50 20 00 72 	movb   $0x72,0x20505d(%rip)        # 606148 <target_prefix>
  4010eb:	83 3d b6 43 20 00 00 	cmpl   $0x0,0x2043b6(%rip)        # 6054a8 <notify>
  4010f2:	0f 84 bb 00 00 00    	je     4011b3 <initialize_target+0x163>
  4010f8:	83 3d 29 44 20 00 00 	cmpl   $0x0,0x204429(%rip)        # 605528 <is_checker>
  4010ff:	0f 85 ae 00 00 00    	jne    4011b3 <initialize_target+0x163>
  401105:	be 00 01 00 00       	mov    $0x100,%esi
  40110a:	48 89 e7             	mov    %rsp,%rdi
  40110d:	e8 4e fd ff ff       	callq  400e60 <gethostname@plt>
  401112:	85 c0                	test   %eax,%eax
  401114:	74 25                	je     40113b <initialize_target+0xeb>
  401116:	bf 78 30 40 00       	mov    $0x403078,%edi
  40111b:	e8 d0 fb ff ff       	callq  400cf0 <puts@plt>
  401120:	bf 08 00 00 00       	mov    $0x8,%edi
  401125:	e8 46 fd ff ff       	callq  400e70 <exit@plt>
  40112a:	48 89 e6             	mov    %rsp,%rsi
  40112d:	e8 6e fb ff ff       	callq  400ca0 <strcasecmp@plt>
  401132:	85 c0                	test   %eax,%eax
  401134:	74 21                	je     401157 <initialize_target+0x107>
  401136:	83 c3 01             	add    $0x1,%ebx
  401139:	eb 05                	jmp    401140 <initialize_target+0xf0>
  40113b:	bb 00 00 00 00       	mov    $0x0,%ebx
  401140:	48 63 c3             	movslq %ebx,%rax
  401143:	48 8b 3c c5 80 51 60 	mov    0x605180(,%rax,8),%rdi
  40114a:	00 
  40114b:	48 85 ff             	test   %rdi,%rdi
  40114e:	75 da                	jne    40112a <initialize_target+0xda>
  401150:	b8 00 00 00 00       	mov    $0x0,%eax
  401155:	eb 05                	jmp    40115c <initialize_target+0x10c>
  401157:	b8 01 00 00 00       	mov    $0x1,%eax
  40115c:	85 c0                	test   %eax,%eax
  40115e:	75 1c                	jne    40117c <initialize_target+0x12c>
  401160:	48 89 e2             	mov    %rsp,%rdx
  401163:	be b0 30 40 00       	mov    $0x4030b0,%esi
  401168:	bf 01 00 00 00       	mov    $0x1,%edi
  40116d:	e8 ae fc ff ff       	callq  400e20 <__printf_chk@plt>
  401172:	bf 08 00 00 00       	mov    $0x8,%edi
  401177:	e8 f4 fc ff ff       	callq  400e70 <exit@plt>
  40117c:	48 8d bc 24 00 01 00 	lea    0x100(%rsp),%rdi
  401183:	00 
  401184:	e8 d0 1a 00 00       	callq  402c59 <init_driver>
  401189:	85 c0                	test   %eax,%eax
  40118b:	79 26                	jns    4011b3 <initialize_target+0x163>
  40118d:	48 8d 94 24 00 01 00 	lea    0x100(%rsp),%rdx
  401194:	00 
  401195:	be f0 30 40 00       	mov    $0x4030f0,%esi
  40119a:	bf 01 00 00 00       	mov    $0x1,%edi
  40119f:	b8 00 00 00 00       	mov    $0x0,%eax
  4011a4:	e8 77 fc ff ff       	callq  400e20 <__printf_chk@plt>
  4011a9:	bf 08 00 00 00       	mov    $0x8,%edi
  4011ae:	e8 bd fc ff ff       	callq  400e70 <exit@plt>
  4011b3:	48 8b 84 24 08 21 00 	mov    0x2108(%rsp),%rax
  4011ba:	00 
  4011bb:	64 48 33 04 25 28 00 	xor    %fs:0x28,%rax
  4011c2:	00 00 
  4011c4:	74 05                	je     4011cb <initialize_target+0x17b>
  4011c6:	e8 45 fb ff ff       	callq  400d10 <__stack_chk_fail@plt>
  4011cb:	48 81 c4 18 21 00 00 	add    $0x2118,%rsp
  4011d2:	5b                   	pop    %rbx
  4011d3:	5d                   	pop    %rbp
  4011d4:	c3                   	retq   

00000000004011d5 <main>:
  4011d5:	41 56                	push   %r14
  4011d7:	41 55                	push   %r13
  4011d9:	41 54                	push   %r12
  4011db:	55                   	push   %rbp
  4011dc:	53                   	push   %rbx
  4011dd:	41 89 fc             	mov    %edi,%r12d
  4011e0:	48 89 f3             	mov    %rsi,%rbx
  4011e3:	be 79 1f 40 00       	mov    $0x401f79,%esi
  4011e8:	bf 0b 00 00 00       	mov    $0xb,%edi
  4011ed:	e8 8e fb ff ff       	callq  400d80 <signal@plt>
  4011f2:	be 2b 1f 40 00       	mov    $0x401f2b,%esi
  4011f7:	bf 07 00 00 00       	mov    $0x7,%edi
  4011fc:	e8 7f fb ff ff       	callq  400d80 <signal@plt>
  401201:	be c7 1f 40 00       	mov    $0x401fc7,%esi
  401206:	bf 04 00 00 00       	mov    $0x4,%edi
  40120b:	e8 70 fb ff ff       	callq  400d80 <signal@plt>
  401210:	83 3d 11 43 20 00 00 	cmpl   $0x0,0x204311(%rip)        # 605528 <is_checker>
  401217:	74 20                	je     401239 <main+0x64>
  401219:	be 15 20 40 00       	mov    $0x402015,%esi
  40121e:	bf 0e 00 00 00       	mov    $0xe,%edi
  401223:	e8 58 fb ff ff       	callq  400d80 <signal@plt>
  401228:	bf 05 00 00 00       	mov    $0x5,%edi
  40122d:	e8 0e fb ff ff       	callq  400d40 <alarm@plt>
  401232:	bd ba 31 40 00       	mov    $0x4031ba,%ebp
  401237:	eb 05                	jmp    40123e <main+0x69>
  401239:	bd b5 31 40 00       	mov    $0x4031b5,%ebp
  40123e:	48 8b 05 7b 42 20 00 	mov    0x20427b(%rip),%rax        # 6054c0 <stdin@@GLIBC_2.2.5>
  401245:	48 89 05 c4 42 20 00 	mov    %rax,0x2042c4(%rip)        # 605510 <infile>
  40124c:	41 bd 00 00 00 00    	mov    $0x0,%r13d
  401252:	41 be 00 00 00 00    	mov    $0x0,%r14d
  401258:	e9 c6 00 00 00       	jmpq   401323 <main+0x14e>
  40125d:	83 e8 61             	sub    $0x61,%eax
  401260:	3c 10                	cmp    $0x10,%al
  401262:	0f 87 9c 00 00 00    	ja     401304 <main+0x12f>
  401268:	0f b6 c0             	movzbl %al,%eax
  40126b:	ff 24 c5 00 32 40 00 	jmpq   *0x403200(,%rax,8)
  401272:	48 8b 3b             	mov    (%rbx),%rdi
  401275:	e8 4c fd ff ff       	callq  400fc6 <usage>
  40127a:	be 0d 35 40 00       	mov    $0x40350d,%esi
  40127f:	48 8b 3d 42 42 20 00 	mov    0x204242(%rip),%rdi        # 6054c8 <optarg@@GLIBC_2.2.5>
  401286:	e8 a5 fb ff ff       	callq  400e30 <fopen@plt>
  40128b:	48 89 05 7e 42 20 00 	mov    %rax,0x20427e(%rip)        # 605510 <infile>
  401292:	48 85 c0             	test   %rax,%rax
  401295:	0f 85 88 00 00 00    	jne    401323 <main+0x14e>
  40129b:	48 8b 0d 26 42 20 00 	mov    0x204226(%rip),%rcx        # 6054c8 <optarg@@GLIBC_2.2.5>
  4012a2:	ba c2 31 40 00       	mov    $0x4031c2,%edx
  4012a7:	be 01 00 00 00       	mov    $0x1,%esi
  4012ac:	48 8b 3d 2d 42 20 00 	mov    0x20422d(%rip),%rdi        # 6054e0 <stderr@@GLIBC_2.2.5>
  4012b3:	e8 d8 fb ff ff       	callq  400e90 <__fprintf_chk@plt>
  4012b8:	b8 01 00 00 00       	mov    $0x1,%eax
  4012bd:	e9 e4 00 00 00       	jmpq   4013a6 <main+0x1d1>
  4012c2:	ba 10 00 00 00       	mov    $0x10,%edx
  4012c7:	be 00 00 00 00       	mov    $0x0,%esi
  4012cc:	48 8b 3d f5 41 20 00 	mov    0x2041f5(%rip),%rdi        # 6054c8 <optarg@@GLIBC_2.2.5>
  4012d3:	e8 78 fb ff ff       	callq  400e50 <strtoul@plt>
  4012d8:	41 89 c6             	mov    %eax,%r14d
  4012db:	eb 46                	jmp    401323 <main+0x14e>
  4012dd:	ba 0a 00 00 00       	mov    $0xa,%edx
  4012e2:	be 00 00 00 00       	mov    $0x0,%esi
  4012e7:	48 8b 3d da 41 20 00 	mov    0x2041da(%rip),%rdi        # 6054c8 <optarg@@GLIBC_2.2.5>
  4012ee:	e8 bd fa ff ff       	callq  400db0 <strtol@plt>
  4012f3:	41 89 c5             	mov    %eax,%r13d
  4012f6:	eb 2b                	jmp    401323 <main+0x14e>
  4012f8:	c7 05 a6 41 20 00 00 	movl   $0x0,0x2041a6(%rip)        # 6054a8 <notify>
  4012ff:	00 00 00 
  401302:	eb 1f                	jmp    401323 <main+0x14e>
  401304:	0f be d2             	movsbl %dl,%edx
  401307:	be df 31 40 00       	mov    $0x4031df,%esi
  40130c:	bf 01 00 00 00       	mov    $0x1,%edi
  401311:	b8 00 00 00 00       	mov    $0x0,%eax
  401316:	e8 05 fb ff ff       	callq  400e20 <__printf_chk@plt>
  40131b:	48 8b 3b             	mov    (%rbx),%rdi
  40131e:	e8 a3 fc ff ff       	callq  400fc6 <usage>
  401323:	48 89 ea             	mov    %rbp,%rdx
  401326:	48 89 de             	mov    %rbx,%rsi
  401329:	44 89 e7             	mov    %r12d,%edi
  40132c:	e8 0f fb ff ff       	callq  400e40 <getopt@plt>
  401331:	89 c2                	mov    %eax,%edx
  401333:	3c ff                	cmp    $0xff,%al
  401335:	0f 85 22 ff ff ff    	jne    40125d <main+0x88>
  40133b:	be 01 00 00 00       	mov    $0x1,%esi
  401340:	44 89 ef             	mov    %r13d,%edi
  401343:	e8 08 fd ff ff       	callq  401050 <initialize_target>
  401348:	83 3d d9 41 20 00 00 	cmpl   $0x0,0x2041d9(%rip)        # 605528 <is_checker>
  40134f:	74 2a                	je     40137b <main+0x1a6>
  401351:	44 3b 35 c8 41 20 00 	cmp    0x2041c8(%rip),%r14d        # 605520 <authkey>
  401358:	74 21                	je     40137b <main+0x1a6>
  40135a:	44 89 f2             	mov    %r14d,%edx
  40135d:	be 18 31 40 00       	mov    $0x403118,%esi
  401362:	bf 01 00 00 00       	mov    $0x1,%edi
  401367:	b8 00 00 00 00       	mov    $0x0,%eax
  40136c:	e8 af fa ff ff       	callq  400e20 <__printf_chk@plt>
  401371:	b8 00 00 00 00       	mov    $0x0,%eax
  401376:	e8 4c 08 00 00       	callq  401bc7 <check_fail>
  40137b:	8b 15 a3 41 20 00    	mov    0x2041a3(%rip),%edx        # 605524 <cookie>
  401381:	be f2 31 40 00       	mov    $0x4031f2,%esi
  401386:	bf 01 00 00 00       	mov    $0x1,%edi
  40138b:	b8 00 00 00 00       	mov    $0x0,%eax
  401390:	e8 8b fa ff ff       	callq  400e20 <__printf_chk@plt>
  401395:	48 8b 3d 04 41 20 00 	mov    0x204104(%rip),%rdi        # 6054a0 <buf_offset>
  40139c:	e8 c7 0c 00 00       	callq  402068 <launch>
  4013a1:	b8 00 00 00 00       	mov    $0x0,%eax
  4013a6:	5b                   	pop    %rbx
  4013a7:	5d                   	pop    %rbp
  4013a8:	41 5c                	pop    %r12
  4013aa:	41 5d                	pop    %r13
  4013ac:	41 5e                	pop    %r14
  4013ae:	c3                   	retq   

00000000004013af <scramble>:
  4013af:	48 83 ec 38          	sub    $0x38,%rsp
  4013b3:	64 48 8b 04 25 28 00 	mov    %fs:0x28,%rax
  4013ba:	00 00 
  4013bc:	48 89 44 24 28       	mov    %rax,0x28(%rsp)
  4013c1:	31 c0                	xor    %eax,%eax
  4013c3:	eb 10                	jmp    4013d5 <scramble+0x26>
  4013c5:	69 d0 0d 82 00 00    	imul   $0x820d,%eax,%edx
  4013cb:	01 fa                	add    %edi,%edx
  4013cd:	89 c1                	mov    %eax,%ecx
  4013cf:	89 14 8c             	mov    %edx,(%rsp,%rcx,4)
  4013d2:	83 c0 01             	add    $0x1,%eax
  4013d5:	83 f8 09             	cmp    $0x9,%eax
  4013d8:	76 eb                	jbe    4013c5 <scramble+0x16>
  4013da:	8b 44 24 1c          	mov    0x1c(%rsp),%eax
  4013de:	69 c0 51 d3 00 00    	imul   $0xd351,%eax,%eax
  4013e4:	89 44 24 1c          	mov    %eax,0x1c(%rsp)
  4013e8:	8b 04 24             	mov    (%rsp),%eax
  4013eb:	69 c0 e3 82 00 00    	imul   $0x82e3,%eax,%eax
  4013f1:	89 04 24             	mov    %eax,(%rsp)
  4013f4:	8b 44 24 08          	mov    0x8(%rsp),%eax
  4013f8:	69 c0 ec df 00 00    	imul   $0xdfec,%eax,%eax
  4013fe:	89 44 24 08          	mov    %eax,0x8(%rsp)
  401402:	8b 44 24 20          	mov    0x20(%rsp),%eax
  401406:	69 c0 0d 8a 00 00    	imul   $0x8a0d,%eax,%eax
  40140c:	89 44 24 20          	mov    %eax,0x20(%rsp)
  401410:	8b 44 24 14          	mov    0x14(%rsp),%eax
  401414:	69 c0 b0 62 00 00    	imul   $0x62b0,%eax,%eax
  40141a:	89 44 24 14          	mov    %eax,0x14(%rsp)
  40141e:	8b 44 24 18          	mov    0x18(%rsp),%eax
  401422:	69 c0 af fc 00 00    	imul   $0xfcaf,%eax,%eax
  401428:	89 44 24 18          	mov    %eax,0x18(%rsp)
  40142c:	8b 44 24 10          	mov    0x10(%rsp),%eax
  401430:	69 c0 19 45 00 00    	imul   $0x4519,%eax,%eax
  401436:	89 44 24 10          	mov    %eax,0x10(%rsp)
  40143a:	8b 44 24 0c          	mov    0xc(%rsp),%eax
  40143e:	69 c0 d4 a3 00 00    	imul   $0xa3d4,%eax,%eax
  401444:	89 44 24 0c          	mov    %eax,0xc(%rsp)
  401448:	8b 44 24 18          	mov    0x18(%rsp),%eax
  40144c:	69 c0 68 91 00 00    	imul   $0x9168,%eax,%eax
  401452:	89 44 24 18          	mov    %eax,0x18(%rsp)
  401456:	8b 44 24 04          	mov    0x4(%rsp),%eax
  40145a:	69 c0 01 51 00 00    	imul   $0x5101,%eax,%eax
  401460:	89 44 24 04          	mov    %eax,0x4(%rsp)
  401464:	8b 44 24 1c          	mov    0x1c(%rsp),%eax
  401468:	69 c0 a3 5a 00 00    	imul   $0x5aa3,%eax,%eax
  40146e:	89 44 24 1c          	mov    %eax,0x1c(%rsp)
  401472:	8b 44 24 1c          	mov    0x1c(%rsp),%eax
  401476:	69 c0 24 a7 00 00    	imul   $0xa724,%eax,%eax
  40147c:	89 44 24 1c          	mov    %eax,0x1c(%rsp)
  401480:	8b 44 24 18          	mov    0x18(%rsp),%eax
  401484:	69 c0 0f 41 00 00    	imul   $0x410f,%eax,%eax
  40148a:	89 44 24 18          	mov    %eax,0x18(%rsp)
  40148e:	8b 44 24 1c          	mov    0x1c(%rsp),%eax
  401492:	69 c0 2f b8 00 00    	imul   $0xb82f,%eax,%eax
  401498:	89 44 24 1c          	mov    %eax,0x1c(%rsp)
  40149c:	8b 44 24 0c          	mov    0xc(%rsp),%eax
  4014a0:	69 c0 54 48 00 00    	imul   $0x4854,%eax,%eax
  4014a6:	89 44 24 0c          	mov    %eax,0xc(%rsp)
  4014aa:	8b 44 24 20          	mov    0x20(%rsp),%eax
  4014ae:	69 c0 91 56 00 00    	imul   $0x5691,%eax,%eax
  4014b4:	89 44 24 20          	mov    %eax,0x20(%rsp)
  4014b8:	8b 44 24 18          	mov    0x18(%rsp),%eax
  4014bc:	69 c0 d3 8a 00 00    	imul   $0x8ad3,%eax,%eax
  4014c2:	89 44 24 18          	mov    %eax,0x18(%rsp)
  4014c6:	8b 44 24 1c          	mov    0x1c(%rsp),%eax
  4014ca:	69 c0 78 a4 00 00    	imul   $0xa478,%eax,%eax
  4014d0:	89 44 24 1c          	mov    %eax,0x1c(%rsp)
  4014d4:	8b 44 24 24          	mov    0x24(%rsp),%eax
  4014d8:	69 c0 43 1f 00 00    	imul   $0x1f43,%eax,%eax
  4014de:	89 44 24 24          	mov    %eax,0x24(%rsp)
  4014e2:	8b 44 24 1c          	mov    0x1c(%rsp),%eax
  4014e6:	69 c0 dd 5b 00 00    	imul   $0x5bdd,%eax,%eax
  4014ec:	89 44 24 1c          	mov    %eax,0x1c(%rsp)
  4014f0:	8b 44 24 20          	mov    0x20(%rsp),%eax
  4014f4:	69 c0 1e 92 00 00    	imul   $0x921e,%eax,%eax
  4014fa:	89 44 24 20          	mov    %eax,0x20(%rsp)
  4014fe:	8b 44 24 24          	mov    0x24(%rsp),%eax
  401502:	69 c0 cd b9 00 00    	imul   $0xb9cd,%eax,%eax
  401508:	89 44 24 24          	mov    %eax,0x24(%rsp)
  40150c:	8b 44 24 1c          	mov    0x1c(%rsp),%eax
  401510:	69 c0 22 1b 00 00    	imul   $0x1b22,%eax,%eax
  401516:	89 44 24 1c          	mov    %eax,0x1c(%rsp)
  40151a:	8b 04 24             	mov    (%rsp),%eax
  40151d:	69 c0 6b 44 00 00    	imul   $0x446b,%eax,%eax
  401523:	89 04 24             	mov    %eax,(%rsp)
  401526:	8b 44 24 20          	mov    0x20(%rsp),%eax
  40152a:	69 c0 f2 f0 00 00    	imul   $0xf0f2,%eax,%eax
  401530:	89 44 24 20          	mov    %eax,0x20(%rsp)
  401534:	8b 44 24 14          	mov    0x14(%rsp),%eax
  401538:	69 c0 24 42 00 00    	imul   $0x4224,%eax,%eax
  40153e:	89 44 24 14          	mov    %eax,0x14(%rsp)
  401542:	8b 44 24 08          	mov    0x8(%rsp),%eax
  401546:	69 c0 fe 5a 00 00    	imul   $0x5afe,%eax,%eax
  40154c:	89 44 24 08          	mov    %eax,0x8(%rsp)
  401550:	8b 44 24 14          	mov    0x14(%rsp),%eax
  401554:	69 c0 26 4c 00 00    	imul   $0x4c26,%eax,%eax
  40155a:	89 44 24 14          	mov    %eax,0x14(%rsp)
  40155e:	8b 04 24             	mov    (%rsp),%eax
  401561:	69 c0 fa 38 00 00    	imul   $0x38fa,%eax,%eax
  401567:	89 04 24             	mov    %eax,(%rsp)
  40156a:	8b 44 24 20          	mov    0x20(%rsp),%eax
  40156e:	69 c0 90 70 00 00    	imul   $0x7090,%eax,%eax
  401574:	89 44 24 20          	mov    %eax,0x20(%rsp)
  401578:	8b 44 24 04          	mov    0x4(%rsp),%eax
  40157c:	69 c0 e5 6c 00 00    	imul   $0x6ce5,%eax,%eax
  401582:	89 44 24 04          	mov    %eax,0x4(%rsp)
  401586:	8b 04 24             	mov    (%rsp),%eax
  401589:	69 c0 f4 9c 00 00    	imul   $0x9cf4,%eax,%eax
  40158f:	89 04 24             	mov    %eax,(%rsp)
  401592:	8b 44 24 18          	mov    0x18(%rsp),%eax
  401596:	69 c0 96 a0 00 00    	imul   $0xa096,%eax,%eax
  40159c:	89 44 24 18          	mov    %eax,0x18(%rsp)
  4015a0:	8b 44 24 24          	mov    0x24(%rsp),%eax
  4015a4:	69 c0 77 62 00 00    	imul   $0x6277,%eax,%eax
  4015aa:	89 44 24 24          	mov    %eax,0x24(%rsp)
  4015ae:	8b 44 24 08          	mov    0x8(%rsp),%eax
  4015b2:	69 c0 f1 6f 00 00    	imul   $0x6ff1,%eax,%eax
  4015b8:	89 44 24 08          	mov    %eax,0x8(%rsp)
  4015bc:	8b 44 24 04          	mov    0x4(%rsp),%eax
  4015c0:	69 c0 cc 41 00 00    	imul   $0x41cc,%eax,%eax
  4015c6:	89 44 24 04          	mov    %eax,0x4(%rsp)
  4015ca:	8b 44 24 08          	mov    0x8(%rsp),%eax
  4015ce:	69 c0 e1 16 00 00    	imul   $0x16e1,%eax,%eax
  4015d4:	89 44 24 08          	mov    %eax,0x8(%rsp)
  4015d8:	8b 44 24 1c          	mov    0x1c(%rsp),%eax
  4015dc:	69 c0 47 d9 00 00    	imul   $0xd947,%eax,%eax
  4015e2:	89 44 24 1c          	mov    %eax,0x1c(%rsp)
  4015e6:	8b 44 24 18          	mov    0x18(%rsp),%eax
  4015ea:	69 c0 3b 59 00 00    	imul   $0x593b,%eax,%eax
  4015f0:	89 44 24 18          	mov    %eax,0x18(%rsp)
  4015f4:	8b 44 24 1c          	mov    0x1c(%rsp),%eax
  4015f8:	69 c0 8e de 00 00    	imul   $0xde8e,%eax,%eax
  4015fe:	89 44 24 1c          	mov    %eax,0x1c(%rsp)
  401602:	8b 44 24 08          	mov    0x8(%rsp),%eax
  401606:	69 c0 1e b3 00 00    	imul   $0xb31e,%eax,%eax
  40160c:	89 44 24 08          	mov    %eax,0x8(%rsp)
  401610:	8b 44 24 08          	mov    0x8(%rsp),%eax
  401614:	69 c0 c3 95 00 00    	imul   $0x95c3,%eax,%eax
  40161a:	89 44 24 08          	mov    %eax,0x8(%rsp)
  40161e:	8b 44 24 24          	mov    0x24(%rsp),%eax
  401622:	69 c0 fa 09 00 00    	imul   $0x9fa,%eax,%eax
  401628:	89 44 24 24          	mov    %eax,0x24(%rsp)
  40162c:	8b 44 24 18          	mov    0x18(%rsp),%eax
  401630:	69 c0 29 aa 00 00    	imul   $0xaa29,%eax,%eax
  401636:	89 44 24 18          	mov    %eax,0x18(%rsp)
  40163a:	8b 44 24 08          	mov    0x8(%rsp),%eax
  40163e:	69 c0 3f e6 00 00    	imul   $0xe63f,%eax,%eax
  401644:	89 44 24 08          	mov    %eax,0x8(%rsp)
  401648:	8b 44 24 24          	mov    0x24(%rsp),%eax
  40164c:	69 c0 42 c4 00 00    	imul   $0xc442,%eax,%eax
  401652:	89 44 24 24          	mov    %eax,0x24(%rsp)
  401656:	8b 44 24 0c          	mov    0xc(%rsp),%eax
  40165a:	69 c0 db e1 00 00    	imul   $0xe1db,%eax,%eax
  401660:	89 44 24 0c          	mov    %eax,0xc(%rsp)
  401664:	8b 44 24 0c          	mov    0xc(%rsp),%eax
  401668:	69 c0 dd 4a 00 00    	imul   $0x4add,%eax,%eax
  40166e:	89 44 24 0c          	mov    %eax,0xc(%rsp)
  401672:	8b 44 24 1c          	mov    0x1c(%rsp),%eax
  401676:	69 c0 a3 a2 00 00    	imul   $0xa2a3,%eax,%eax
  40167c:	89 44 24 1c          	mov    %eax,0x1c(%rsp)
  401680:	8b 44 24 1c          	mov    0x1c(%rsp),%eax
  401684:	69 c0 4a 42 00 00    	imul   $0x424a,%eax,%eax
  40168a:	89 44 24 1c          	mov    %eax,0x1c(%rsp)
  40168e:	8b 44 24 0c          	mov    0xc(%rsp),%eax
  401692:	69 c0 a9 6b 00 00    	imul   $0x6ba9,%eax,%eax
  401698:	89 44 24 0c          	mov    %eax,0xc(%rsp)
  40169c:	8b 44 24 18          	mov    0x18(%rsp),%eax
  4016a0:	69 c0 a4 14 00 00    	imul   $0x14a4,%eax,%eax
  4016a6:	89 44 24 18          	mov    %eax,0x18(%rsp)
  4016aa:	8b 44 24 24          	mov    0x24(%rsp),%eax
  4016ae:	69 c0 b1 7f 00 00    	imul   $0x7fb1,%eax,%eax
  4016b4:	89 44 24 24          	mov    %eax,0x24(%rsp)
  4016b8:	8b 04 24             	mov    (%rsp),%eax
  4016bb:	69 c0 8e b4 00 00    	imul   $0xb48e,%eax,%eax
  4016c1:	89 04 24             	mov    %eax,(%rsp)
  4016c4:	8b 44 24 08          	mov    0x8(%rsp),%eax
  4016c8:	69 c0 9d 0b 00 00    	imul   $0xb9d,%eax,%eax
  4016ce:	89 44 24 08          	mov    %eax,0x8(%rsp)
  4016d2:	8b 44 24 08          	mov    0x8(%rsp),%eax
  4016d6:	69 c0 1a 23 00 00    	imul   $0x231a,%eax,%eax
  4016dc:	89 44 24 08          	mov    %eax,0x8(%rsp)
  4016e0:	8b 44 24 14          	mov    0x14(%rsp),%eax
  4016e4:	69 c0 ce b3 00 00    	imul   $0xb3ce,%eax,%eax
  4016ea:	89 44 24 14          	mov    %eax,0x14(%rsp)
  4016ee:	8b 04 24             	mov    (%rsp),%eax
  4016f1:	69 c0 d8 cc 00 00    	imul   $0xccd8,%eax,%eax
  4016f7:	89 04 24             	mov    %eax,(%rsp)
  4016fa:	8b 44 24 08          	mov    0x8(%rsp),%eax
  4016fe:	69 c0 c6 9a 00 00    	imul   $0x9ac6,%eax,%eax
  401704:	89 44 24 08          	mov    %eax,0x8(%rsp)
  401708:	8b 04 24             	mov    (%rsp),%eax
  40170b:	69 c0 bc 00 00 00    	imul   $0xbc,%eax,%eax
  401711:	89 04 24             	mov    %eax,(%rsp)
  401714:	8b 44 24 10          	mov    0x10(%rsp),%eax
  401718:	69 c0 bc 91 00 00    	imul   $0x91bc,%eax,%eax
  40171e:	89 44 24 10          	mov    %eax,0x10(%rsp)
  401722:	8b 44 24 04          	mov    0x4(%rsp),%eax
  401726:	69 c0 2b d4 00 00    	imul   $0xd42b,%eax,%eax
  40172c:	89 44 24 04          	mov    %eax,0x4(%rsp)
  401730:	8b 04 24             	mov    (%rsp),%eax
  401733:	69 c0 35 26 00 00    	imul   $0x2635,%eax,%eax
  401739:	89 04 24             	mov    %eax,(%rsp)
  40173c:	8b 44 24 24          	mov    0x24(%rsp),%eax
  401740:	69 c0 09 f6 00 00    	imul   $0xf609,%eax,%eax
  401746:	89 44 24 24          	mov    %eax,0x24(%rsp)
  40174a:	8b 44 24 0c          	mov    0xc(%rsp),%eax
  40174e:	69 c0 5d cc 00 00    	imul   $0xcc5d,%eax,%eax
  401754:	89 44 24 0c          	mov    %eax,0xc(%rsp)
  401758:	8b 44 24 04          	mov    0x4(%rsp),%eax
  40175c:	69 c0 6e db 00 00    	imul   $0xdb6e,%eax,%eax
  401762:	89 44 24 04          	mov    %eax,0x4(%rsp)
  401766:	8b 44 24 10          	mov    0x10(%rsp),%eax
  40176a:	69 c0 6a bc 00 00    	imul   $0xbc6a,%eax,%eax
  401770:	89 44 24 10          	mov    %eax,0x10(%rsp)
  401774:	8b 44 24 14          	mov    0x14(%rsp),%eax
  401778:	69 c0 91 ba 00 00    	imul   $0xba91,%eax,%eax
  40177e:	89 44 24 14          	mov    %eax,0x14(%rsp)
  401782:	8b 44 24 04          	mov    0x4(%rsp),%eax
  401786:	69 c0 fe dd 00 00    	imul   $0xddfe,%eax,%eax
  40178c:	89 44 24 04          	mov    %eax,0x4(%rsp)
  401790:	8b 44 24 0c          	mov    0xc(%rsp),%eax
  401794:	69 c0 08 15 00 00    	imul   $0x1508,%eax,%eax
  40179a:	89 44 24 0c          	mov    %eax,0xc(%rsp)
  40179e:	8b 44 24 20          	mov    0x20(%rsp),%eax
  4017a2:	69 c0 3b 02 00 00    	imul   $0x23b,%eax,%eax
  4017a8:	89 44 24 20          	mov    %eax,0x20(%rsp)
  4017ac:	8b 44 24 24          	mov    0x24(%rsp),%eax
  4017b0:	69 c0 57 a8 00 00    	imul   $0xa857,%eax,%eax
  4017b6:	89 44 24 24          	mov    %eax,0x24(%rsp)
  4017ba:	8b 04 24             	mov    (%rsp),%eax
  4017bd:	69 c0 ff f0 00 00    	imul   $0xf0ff,%eax,%eax
  4017c3:	89 04 24             	mov    %eax,(%rsp)
  4017c6:	8b 44 24 0c          	mov    0xc(%rsp),%eax
  4017ca:	69 c0 d1 73 00 00    	imul   $0x73d1,%eax,%eax
  4017d0:	89 44 24 0c          	mov    %eax,0xc(%rsp)
  4017d4:	8b 44 24 24          	mov    0x24(%rsp),%eax
  4017d8:	69 c0 32 ec 00 00    	imul   $0xec32,%eax,%eax
  4017de:	89 44 24 24          	mov    %eax,0x24(%rsp)
  4017e2:	8b 44 24 08          	mov    0x8(%rsp),%eax
  4017e6:	69 c0 cb 0c 00 00    	imul   $0xccb,%eax,%eax
  4017ec:	89 44 24 08          	mov    %eax,0x8(%rsp)
  4017f0:	8b 44 24 10          	mov    0x10(%rsp),%eax
  4017f4:	69 c0 8c 39 00 00    	imul   $0x398c,%eax,%eax
  4017fa:	89 44 24 10          	mov    %eax,0x10(%rsp)
  4017fe:	8b 44 24 14          	mov    0x14(%rsp),%eax
  401802:	69 c0 85 f1 00 00    	imul   $0xf185,%eax,%eax
  401808:	89 44 24 14          	mov    %eax,0x14(%rsp)
  40180c:	8b 14 24             	mov    (%rsp),%edx
  40180f:	89 d0                	mov    %edx,%eax
  401811:	c1 e0 10             	shl    $0x10,%eax
  401814:	29 d0                	sub    %edx,%eax
  401816:	89 04 24             	mov    %eax,(%rsp)
  401819:	ba 00 00 00 00       	mov    $0x0,%edx
  40181e:	b8 00 00 00 00       	mov    $0x0,%eax
  401823:	eb 0a                	jmp    40182f <scramble+0x480>
  401825:	89 d1                	mov    %edx,%ecx
  401827:	8b 0c 8c             	mov    (%rsp,%rcx,4),%ecx
  40182a:	01 c8                	add    %ecx,%eax
  40182c:	83 c2 01             	add    $0x1,%edx
  40182f:	83 fa 09             	cmp    $0x9,%edx
  401832:	76 f1                	jbe    401825 <scramble+0x476>
  401834:	48 8b 74 24 28       	mov    0x28(%rsp),%rsi
  401839:	64 48 33 34 25 28 00 	xor    %fs:0x28,%rsi
  401840:	00 00 
  401842:	74 05                	je     401849 <scramble+0x49a>
  401844:	e8 c7 f4 ff ff       	callq  400d10 <__stack_chk_fail@plt>
  401849:	48 83 c4 38          	add    $0x38,%rsp
  40184d:	c3                   	retq   

000000000040184e <getbuf>:
  40184e:	48 83 ec 38          	sub    $0x38,%rsp
  401852:	48 89 e7             	mov    %rsp,%rdi
  401855:	e8 a2 03 00 00       	callq  401bfc <Gets>
  40185a:	b8 01 00 00 00       	mov    $0x1,%eax
  40185f:	48 83 c4 38          	add    $0x38,%rsp
  401863:	c3                   	retq   

0000000000401864 <touch1>:
  401864:	48 83 ec 08          	sub    $0x8,%rsp
  401868:	c7 05 aa 3c 20 00 01 	movl   $0x1,0x203caa(%rip)        # 60551c <vlevel>
  40186f:	00 00 00 
  401872:	bf 66 33 40 00       	mov    $0x403366,%edi
  401877:	e8 74 f4 ff ff       	callq  400cf0 <puts@plt>
  40187c:	bf 01 00 00 00       	mov    $0x1,%edi
  401881:	e8 bb 05 00 00       	callq  401e41 <validate>
  401886:	bf 00 00 00 00       	mov    $0x0,%edi
  40188b:	e8 e0 f5 ff ff       	callq  400e70 <exit@plt>

0000000000401890 <touch2>:
  401890:	48 83 ec 08          	sub    $0x8,%rsp
  401894:	89 fa                	mov    %edi,%edx
  401896:	c7 05 7c 3c 20 00 02 	movl   $0x2,0x203c7c(%rip)        # 60551c <vlevel>
  40189d:	00 00 00 
  4018a0:	39 3d 7e 3c 20 00    	cmp    %edi,0x203c7e(%rip)        # 605524 <cookie>
  4018a6:	75 20                	jne    4018c8 <touch2+0x38>
  4018a8:	be 88 33 40 00       	mov    $0x403388,%esi
  4018ad:	bf 01 00 00 00       	mov    $0x1,%edi
  4018b2:	b8 00 00 00 00       	mov    $0x0,%eax
  4018b7:	e8 64 f5 ff ff       	callq  400e20 <__printf_chk@plt>
  4018bc:	bf 02 00 00 00       	mov    $0x2,%edi
  4018c1:	e8 7b 05 00 00       	callq  401e41 <validate>
  4018c6:	eb 1e                	jmp    4018e6 <touch2+0x56>
  4018c8:	be b0 33 40 00       	mov    $0x4033b0,%esi
  4018cd:	bf 01 00 00 00       	mov    $0x1,%edi
  4018d2:	b8 00 00 00 00       	mov    $0x0,%eax
  4018d7:	e8 44 f5 ff ff       	callq  400e20 <__printf_chk@plt>
  4018dc:	bf 02 00 00 00       	mov    $0x2,%edi
  4018e1:	e8 1d 06 00 00       	callq  401f03 <fail>
  4018e6:	bf 00 00 00 00       	mov    $0x0,%edi
  4018eb:	e8 80 f5 ff ff       	callq  400e70 <exit@plt>

00000000004018f0 <hexmatch>:
  4018f0:	41 54                	push   %r12
  4018f2:	55                   	push   %rbp
  4018f3:	53                   	push   %rbx
  4018f4:	48 83 c4 80          	add    $0xffffffffffffff80,%rsp
  4018f8:	89 fd                	mov    %edi,%ebp
  4018fa:	48 89 f3             	mov    %rsi,%rbx
  4018fd:	64 48 8b 04 25 28 00 	mov    %fs:0x28,%rax
  401904:	00 00 
  401906:	48 89 44 24 78       	mov    %rax,0x78(%rsp)
  40190b:	31 c0                	xor    %eax,%eax
  40190d:	e8 ce f4 ff ff       	callq  400de0 <random@plt>
  401912:	48 89 c1             	mov    %rax,%rcx
  401915:	48 ba 0b d7 a3 70 3d 	movabs $0xa3d70a3d70a3d70b,%rdx
  40191c:	0a d7 a3 
  40191f:	48 f7 ea             	imul   %rdx
  401922:	48 01 ca             	add    %rcx,%rdx
  401925:	48 c1 fa 06          	sar    $0x6,%rdx
  401929:	48 89 c8             	mov    %rcx,%rax
  40192c:	48 c1 f8 3f          	sar    $0x3f,%rax
  401930:	48 29 c2             	sub    %rax,%rdx
  401933:	48 8d 04 92          	lea    (%rdx,%rdx,4),%rax
  401937:	48 8d 14 80          	lea    (%rax,%rax,4),%rdx
  40193b:	48 8d 04 95 00 00 00 	lea    0x0(,%rdx,4),%rax
  401942:	00 
  401943:	48 29 c1             	sub    %rax,%rcx
  401946:	4c 8d 24 0c          	lea    (%rsp,%rcx,1),%r12
  40194a:	41 89 e8             	mov    %ebp,%r8d
  40194d:	b9 83 33 40 00       	mov    $0x403383,%ecx
  401952:	48 c7 c2 ff ff ff ff 	mov    $0xffffffffffffffff,%rdx
  401959:	be 01 00 00 00       	mov    $0x1,%esi
  40195e:	4c 89 e7             	mov    %r12,%rdi
  401961:	b8 00 00 00 00       	mov    $0x0,%eax
  401966:	e8 35 f5 ff ff       	callq  400ea0 <__sprintf_chk@plt>
  40196b:	ba 09 00 00 00       	mov    $0x9,%edx
  401970:	4c 89 e6             	mov    %r12,%rsi
  401973:	48 89 df             	mov    %rbx,%rdi
  401976:	e8 55 f3 ff ff       	callq  400cd0 <strncmp@plt>
  40197b:	85 c0                	test   %eax,%eax
  40197d:	0f 94 c0             	sete   %al
  401980:	48 8b 5c 24 78       	mov    0x78(%rsp),%rbx
  401985:	64 48 33 1c 25 28 00 	xor    %fs:0x28,%rbx
  40198c:	00 00 
  40198e:	74 05                	je     401995 <hexmatch+0xa5>
  401990:	e8 7b f3 ff ff       	callq  400d10 <__stack_chk_fail@plt>
  401995:	0f b6 c0             	movzbl %al,%eax
  401998:	48 83 ec 80          	sub    $0xffffffffffffff80,%rsp
  40199c:	5b                   	pop    %rbx
  40199d:	5d                   	pop    %rbp
  40199e:	41 5c                	pop    %r12
  4019a0:	c3                   	retq   

00000000004019a1 <touch3>:
  4019a1:	53                   	push   %rbx
  4019a2:	48 89 fb             	mov    %rdi,%rbx
  4019a5:	c7 05 6d 3b 20 00 03 	movl   $0x3,0x203b6d(%rip)        # 60551c <vlevel>
  4019ac:	00 00 00 
  4019af:	48 89 fe             	mov    %rdi,%rsi
  4019b2:	8b 3d 6c 3b 20 00    	mov    0x203b6c(%rip),%edi        # 605524 <cookie>
  4019b8:	e8 33 ff ff ff       	callq  4018f0 <hexmatch>
  4019bd:	85 c0                	test   %eax,%eax
  4019bf:	74 23                	je     4019e4 <touch3+0x43>
  4019c1:	48 89 da             	mov    %rbx,%rdx
  4019c4:	be d8 33 40 00       	mov    $0x4033d8,%esi
  4019c9:	bf 01 00 00 00       	mov    $0x1,%edi
  4019ce:	b8 00 00 00 00       	mov    $0x0,%eax
  4019d3:	e8 48 f4 ff ff       	callq  400e20 <__printf_chk@plt>
  4019d8:	bf 03 00 00 00       	mov    $0x3,%edi
  4019dd:	e8 5f 04 00 00       	callq  401e41 <validate>
  4019e2:	eb 21                	jmp    401a05 <touch3+0x64>
  4019e4:	48 89 da             	mov    %rbx,%rdx
  4019e7:	be 00 34 40 00       	mov    $0x403400,%esi
  4019ec:	bf 01 00 00 00       	mov    $0x1,%edi
  4019f1:	b8 00 00 00 00       	mov    $0x0,%eax
  4019f6:	e8 25 f4 ff ff       	callq  400e20 <__printf_chk@plt>
  4019fb:	bf 03 00 00 00       	mov    $0x3,%edi
  401a00:	e8 fe 04 00 00       	callq  401f03 <fail>
  401a05:	bf 00 00 00 00       	mov    $0x0,%edi
  401a0a:	e8 61 f4 ff ff       	callq  400e70 <exit@plt>

0000000000401a0f <test>:
  401a0f:	48 83 ec 08          	sub    $0x8,%rsp
  401a13:	b8 00 00 00 00       	mov    $0x0,%eax
  401a18:	e8 31 fe ff ff       	callq  40184e <getbuf>
  401a1d:	89 c2                	mov    %eax,%edx
  401a1f:	be 28 34 40 00       	mov    $0x403428,%esi
  401a24:	bf 01 00 00 00       	mov    $0x1,%edi
  401a29:	b8 00 00 00 00       	mov    $0x0,%eax
  401a2e:	e8 ed f3 ff ff       	callq  400e20 <__printf_chk@plt>
  401a33:	48 83 c4 08          	add    $0x8,%rsp
  401a37:	c3                   	retq   

0000000000401a38 <start_farm>:
  401a38:	b8 01 00 00 00       	mov    $0x1,%eax
  401a3d:	c3                   	retq   

0000000000401a3e <getval_382>:
  401a3e:	b8 48 89 c7 c3       	mov    $0xc3c78948,%eax
  401a43:	c3                   	retq   

0000000000401a44 <setval_397>:
  401a44:	c7 07 58 94 90 90    	movl   $0x90909458,(%rdi)
  401a4a:	c3                   	retq   

0000000000401a4b <setval_133>:
  401a4b:	c7 07 58 90 90 c3    	movl   $0xc3909058,(%rdi)
  401a51:	c3                   	retq   

0000000000401a52 <addval_361>:
  401a52:	8d 87 56 58 90 90    	lea    -0x6f6fa7aa(%rdi),%eax
  401a58:	c3                   	retq   

0000000000401a59 <setval_364>:
  401a59:	c7 07 48 89 c7 90    	movl   $0x90c78948,(%rdi)
  401a5f:	c3                   	retq   

0000000000401a60 <setval_446>:
  401a60:	c7 07 a4 78 90 90    	movl   $0x909078a4,(%rdi)
  401a66:	c3                   	retq   

0000000000401a67 <addval_331>:
  401a67:	8d 87 c8 89 c7 c3    	lea    -0x3c387638(%rdi),%eax
  401a6d:	c3                   	retq   

0000000000401a6e <addval_220>:
  401a6e:	8d 87 48 89 c7 c2    	lea    -0x3d3876b8(%rdi),%eax
  401a74:	c3                   	retq   

0000000000401a75 <mid_farm>:
  401a75:	b8 01 00 00 00       	mov    $0x1,%eax
  401a7a:	c3                   	retq   

0000000000401a7b <add_xy>:
  401a7b:	48 8d 04 37          	lea    (%rdi,%rsi,1),%rax
  401a7f:	c3                   	retq   

0000000000401a80 <addval_157>:
  401a80:	8d 87 89 c1 c1 c5    	lea    -0x3a3e3e77(%rdi),%eax
  401a86:	c3                   	retq   

0000000000401a87 <addval_162>:
  401a87:	8d 87 48 09 e0 90    	lea    -0x6f1ff6b8(%rdi),%eax
  401a8d:	c3                   	retq   

0000000000401a8e <setval_256>:
  401a8e:	c7 07 89 c1 00 c0    	movl   $0xc000c189,(%rdi)
  401a94:	c3                   	retq   

0000000000401a95 <addval_277>:
  401a95:	8d 87 9c 48 8b e0    	lea    -0x1f74b764(%rdi),%eax
  401a9b:	c3                   	retq   

0000000000401a9c <getval_159>:
  401a9c:	b8 89 d6 18 db       	mov    $0xdb18d689,%eax
  401aa1:	c3                   	retq   

0000000000401aa2 <addval_128>:
  401aa2:	8d 87 09 ca 08 c9    	lea    -0x36f735f7(%rdi),%eax
  401aa8:	c3                   	retq   

0000000000401aa9 <addval_383>:
  401aa9:	8d 87 89 ca 30 db    	lea    -0x24cf3577(%rdi),%eax
  401aaf:	c3                   	retq   

0000000000401ab0 <getval_371>:
  401ab0:	b8 48 89 e0 c7       	mov    $0xc7e08948,%eax
  401ab5:	c3                   	retq   

0000000000401ab6 <addval_181>:
  401ab6:	8d 87 48 89 e0 c3    	lea    -0x3c1f76b8(%rdi),%eax
  401abc:	c3                   	retq   

0000000000401abd <addval_400>:
  401abd:	8d 87 89 ca c1 a3    	lea    -0x5c3e3577(%rdi),%eax
  401ac3:	c3                   	retq   

0000000000401ac4 <setval_101>:
  401ac4:	c7 07 d6 c8 89 e0    	movl   $0xe089c8d6,(%rdi)
  401aca:	c3                   	retq   

0000000000401acb <getval_194>:
  401acb:	b8 89 ca 20 d2       	mov    $0xd220ca89,%eax
  401ad0:	c3                   	retq   

0000000000401ad1 <getval_130>:
  401ad1:	b8 89 c1 28 db       	mov    $0xdb28c189,%eax
  401ad6:	c3                   	retq   

0000000000401ad7 <addval_387>:
  401ad7:	8d 87 89 ca 18 d2    	lea    -0x2de73577(%rdi),%eax
  401add:	c3                   	retq   

0000000000401ade <getval_224>:
  401ade:	b8 89 d6 18 d2       	mov    $0xd218d689,%eax
  401ae3:	c3                   	retq   

0000000000401ae4 <addval_103>:
  401ae4:	8d 87 09 c1 90 c3    	lea    -0x3c6f3ef7(%rdi),%eax
  401aea:	c3                   	retq   

0000000000401aeb <setval_469>:
  401aeb:	c7 07 c8 89 e0 c3    	movl   $0xc3e089c8,(%rdi)
  401af1:	c3                   	retq   

0000000000401af2 <addval_375>:
  401af2:	8d 87 99 d6 90 c3    	lea    -0x3c6f2967(%rdi),%eax
  401af8:	c3                   	retq   

0000000000401af9 <addval_183>:
  401af9:	8d 87 89 ca 28 c0    	lea    -0x3fd73577(%rdi),%eax
  401aff:	c3                   	retq   

0000000000401b00 <getval_433>:
  401b00:	b8 89 ca 38 c0       	mov    $0xc038ca89,%eax
  401b05:	c3                   	retq   

0000000000401b06 <addval_415>:
  401b06:	8d 87 81 c1 08 c9    	lea    -0x36f73e7f(%rdi),%eax
  401b0c:	c3                   	retq   

0000000000401b0d <getval_134>:
  401b0d:	b8 89 d6 38 c0       	mov    $0xc038d689,%eax
  401b12:	c3                   	retq   

0000000000401b13 <addval_354>:
  401b13:	8d 87 89 c1 84 c0    	lea    -0x3f7b3e77(%rdi),%eax
  401b19:	c3                   	retq   

0000000000401b1a <addval_235>:
  401b1a:	8d 87 89 c1 90 c1    	lea    -0x3e6f3e77(%rdi),%eax
  401b20:	c3                   	retq   

0000000000401b21 <setval_378>:
  401b21:	c7 07 09 d6 20 c0    	movl   $0xc020d609,(%rdi)
  401b27:	c3                   	retq   

0000000000401b28 <getval_155>:
  401b28:	b8 d8 48 81 e0       	mov    $0xe08148d8,%eax
  401b2d:	c3                   	retq   

0000000000401b2e <setval_191>:
  401b2e:	c7 07 89 d6 a4 c0    	movl   $0xc0a4d689,(%rdi)
  401b34:	c3                   	retq   

0000000000401b35 <addval_335>:
  401b35:	8d 87 89 d6 90 90    	lea    -0x6f6f2977(%rdi),%eax
  401b3b:	c3                   	retq   

0000000000401b3c <setval_436>:
  401b3c:	c7 07 89 d6 78 d2    	movl   $0xd278d689,(%rdi)
  401b42:	c3                   	retq   

0000000000401b43 <getval_290>:
  401b43:	b8 89 c1 84 d2       	mov    $0xd284c189,%eax
  401b48:	c3                   	retq   

0000000000401b49 <addval_259>:
  401b49:	8d 87 89 ca 90 c1    	lea    -0x3e6f3577(%rdi),%eax
  401b4f:	c3                   	retq   

0000000000401b50 <getval_357>:
  401b50:	b8 48 89 e0 90       	mov    $0x90e08948,%eax
  401b55:	c3                   	retq   

0000000000401b56 <end_farm>:
  401b56:	b8 01 00 00 00       	mov    $0x1,%eax
  401b5b:	c3                   	retq   

0000000000401b5c <save_char>:
  401b5c:	8b 05 e2 45 20 00    	mov    0x2045e2(%rip),%eax        # 606144 <gets_cnt>
  401b62:	3d ff 03 00 00       	cmp    $0x3ff,%eax
  401b67:	7f 49                	jg     401bb2 <save_char+0x56>
  401b69:	8d 14 40             	lea    (%rax,%rax,2),%edx
  401b6c:	89 f9                	mov    %edi,%ecx
  401b6e:	c0 e9 04             	shr    $0x4,%cl
  401b71:	83 e1 0f             	and    $0xf,%ecx
  401b74:	0f b6 b1 50 37 40 00 	movzbl 0x403750(%rcx),%esi
  401b7b:	48 63 ca             	movslq %edx,%rcx
  401b7e:	40 88 b1 40 55 60 00 	mov    %sil,0x605540(%rcx)
  401b85:	8d 4a 01             	lea    0x1(%rdx),%ecx
  401b88:	83 e7 0f             	and    $0xf,%edi
  401b8b:	0f b6 b7 50 37 40 00 	movzbl 0x403750(%rdi),%esi
  401b92:	48 63 c9             	movslq %ecx,%rcx
  401b95:	40 88 b1 40 55 60 00 	mov    %sil,0x605540(%rcx)
  401b9c:	83 c2 02             	add    $0x2,%edx
  401b9f:	48 63 d2             	movslq %edx,%rdx
  401ba2:	c6 82 40 55 60 00 20 	movb   $0x20,0x605540(%rdx)
  401ba9:	83 c0 01             	add    $0x1,%eax
  401bac:	89 05 92 45 20 00    	mov    %eax,0x204592(%rip)        # 606144 <gets_cnt>
  401bb2:	f3 c3                	repz retq 

0000000000401bb4 <save_term>:
  401bb4:	8b 05 8a 45 20 00    	mov    0x20458a(%rip),%eax        # 606144 <gets_cnt>
  401bba:	8d 04 40             	lea    (%rax,%rax,2),%eax
  401bbd:	48 98                	cltq   
  401bbf:	c6 80 40 55 60 00 00 	movb   $0x0,0x605540(%rax)
  401bc6:	c3                   	retq   

0000000000401bc7 <check_fail>:
  401bc7:	48 83 ec 08          	sub    $0x8,%rsp
  401bcb:	0f be 15 76 45 20 00 	movsbl 0x204576(%rip),%edx        # 606148 <target_prefix>
  401bd2:	41 b8 40 55 60 00    	mov    $0x605540,%r8d
  401bd8:	8b 0d 3a 39 20 00    	mov    0x20393a(%rip),%ecx        # 605518 <check_level>
  401bde:	be 4b 34 40 00       	mov    $0x40344b,%esi
  401be3:	bf 01 00 00 00       	mov    $0x1,%edi
  401be8:	b8 00 00 00 00       	mov    $0x0,%eax
  401bed:	e8 2e f2 ff ff       	callq  400e20 <__printf_chk@plt>
  401bf2:	bf 01 00 00 00       	mov    $0x1,%edi
  401bf7:	e8 74 f2 ff ff       	callq  400e70 <exit@plt>

0000000000401bfc <Gets>:
  401bfc:	41 54                	push   %r12
  401bfe:	55                   	push   %rbp
  401bff:	53                   	push   %rbx
  401c00:	49 89 fc             	mov    %rdi,%r12
  401c03:	c7 05 37 45 20 00 00 	movl   $0x0,0x204537(%rip)        # 606144 <gets_cnt>
  401c0a:	00 00 00 
  401c0d:	48 89 fb             	mov    %rdi,%rbx
  401c10:	eb 11                	jmp    401c23 <Gets+0x27>
  401c12:	48 8d 6b 01          	lea    0x1(%rbx),%rbp
  401c16:	88 03                	mov    %al,(%rbx)
  401c18:	0f b6 f8             	movzbl %al,%edi
  401c1b:	e8 3c ff ff ff       	callq  401b5c <save_char>
  401c20:	48 89 eb             	mov    %rbp,%rbx
  401c23:	48 8b 3d e6 38 20 00 	mov    0x2038e6(%rip),%rdi        # 605510 <infile>
  401c2a:	e8 c1 f1 ff ff       	callq  400df0 <_IO_getc@plt>
  401c2f:	83 f8 ff             	cmp    $0xffffffff,%eax
  401c32:	74 05                	je     401c39 <Gets+0x3d>
  401c34:	83 f8 0a             	cmp    $0xa,%eax
  401c37:	75 d9                	jne    401c12 <Gets+0x16>
  401c39:	c6 03 00             	movb   $0x0,(%rbx)
  401c3c:	b8 00 00 00 00       	mov    $0x0,%eax
  401c41:	e8 6e ff ff ff       	callq  401bb4 <save_term>
  401c46:	4c 89 e0             	mov    %r12,%rax
  401c49:	5b                   	pop    %rbx
  401c4a:	5d                   	pop    %rbp
  401c4b:	41 5c                	pop    %r12
  401c4d:	c3                   	retq   

0000000000401c4e <notify_server>:
  401c4e:	53                   	push   %rbx
  401c4f:	48 81 ec 10 40 00 00 	sub    $0x4010,%rsp
  401c56:	64 48 8b 04 25 28 00 	mov    %fs:0x28,%rax
  401c5d:	00 00 
  401c5f:	48 89 84 24 08 40 00 	mov    %rax,0x4008(%rsp)
  401c66:	00 
  401c67:	31 c0                	xor    %eax,%eax
  401c69:	83 3d b8 38 20 00 00 	cmpl   $0x0,0x2038b8(%rip)        # 605528 <is_checker>
  401c70:	0f 85 aa 01 00 00    	jne    401e20 <notify_server+0x1d2>
  401c76:	89 fb                	mov    %edi,%ebx
  401c78:	8b 05 c6 44 20 00    	mov    0x2044c6(%rip),%eax        # 606144 <gets_cnt>
  401c7e:	83 c0 64             	add    $0x64,%eax
  401c81:	3d 00 20 00 00       	cmp    $0x2000,%eax
  401c86:	7e 1e                	jle    401ca6 <notify_server+0x58>
  401c88:	be 80 35 40 00       	mov    $0x403580,%esi
  401c8d:	bf 01 00 00 00       	mov    $0x1,%edi
  401c92:	b8 00 00 00 00       	mov    $0x0,%eax
  401c97:	e8 84 f1 ff ff       	callq  400e20 <__printf_chk@plt>
  401c9c:	bf 01 00 00 00       	mov    $0x1,%edi
  401ca1:	e8 ca f1 ff ff       	callq  400e70 <exit@plt>
  401ca6:	0f be 05 9b 44 20 00 	movsbl 0x20449b(%rip),%eax        # 606148 <target_prefix>
  401cad:	83 3d f4 37 20 00 00 	cmpl   $0x0,0x2037f4(%rip)        # 6054a8 <notify>
  401cb4:	74 08                	je     401cbe <notify_server+0x70>
  401cb6:	8b 15 64 38 20 00    	mov    0x203864(%rip),%edx        # 605520 <authkey>
  401cbc:	eb 05                	jmp    401cc3 <notify_server+0x75>
  401cbe:	ba ff ff ff ff       	mov    $0xffffffff,%edx
  401cc3:	85 db                	test   %ebx,%ebx
  401cc5:	74 08                	je     401ccf <notify_server+0x81>
  401cc7:	41 b9 61 34 40 00    	mov    $0x403461,%r9d
  401ccd:	eb 06                	jmp    401cd5 <notify_server+0x87>
  401ccf:	41 b9 66 34 40 00    	mov    $0x403466,%r9d
  401cd5:	68 40 55 60 00       	pushq  $0x605540
  401cda:	56                   	push   %rsi
  401cdb:	50                   	push   %rax
  401cdc:	52                   	push   %rdx
  401cdd:	44 8b 05 84 34 20 00 	mov    0x203484(%rip),%r8d        # 605168 <target_id>
  401ce4:	b9 6b 34 40 00       	mov    $0x40346b,%ecx
  401ce9:	ba 00 20 00 00       	mov    $0x2000,%edx
  401cee:	be 01 00 00 00       	mov    $0x1,%esi
  401cf3:	48 8d 7c 24 20       	lea    0x20(%rsp),%rdi
  401cf8:	b8 00 00 00 00       	mov    $0x0,%eax
  401cfd:	e8 9e f1 ff ff       	callq  400ea0 <__sprintf_chk@plt>
  401d02:	48 83 c4 20          	add    $0x20,%rsp
  401d06:	83 3d 9b 37 20 00 00 	cmpl   $0x0,0x20379b(%rip)        # 6054a8 <notify>
  401d0d:	0f 84 81 00 00 00    	je     401d94 <notify_server+0x146>
  401d13:	4c 8d 8c 24 00 20 00 	lea    0x2000(%rsp),%r9
  401d1a:	00 
  401d1b:	41 b8 00 00 00 00    	mov    $0x0,%r8d
  401d21:	48 89 e1             	mov    %rsp,%rcx
  401d24:	48 8b 15 45 34 20 00 	mov    0x203445(%rip),%rdx        # 605170 <lab>
  401d2b:	48 8b 35 46 34 20 00 	mov    0x203446(%rip),%rsi        # 605178 <course>
  401d32:	48 8b 3d 27 34 20 00 	mov    0x203427(%rip),%rdi        # 605160 <user_id>
  401d39:	e8 0e 11 00 00       	callq  402e4c <driver_post>
  401d3e:	85 c0                	test   %eax,%eax
  401d40:	79 26                	jns    401d68 <notify_server+0x11a>
  401d42:	48 8d 94 24 00 20 00 	lea    0x2000(%rsp),%rdx
  401d49:	00 
  401d4a:	be 87 34 40 00       	mov    $0x403487,%esi
  401d4f:	bf 01 00 00 00       	mov    $0x1,%edi
  401d54:	b8 00 00 00 00       	mov    $0x0,%eax
  401d59:	e8 c2 f0 ff ff       	callq  400e20 <__printf_chk@plt>
  401d5e:	bf 01 00 00 00       	mov    $0x1,%edi
  401d63:	e8 08 f1 ff ff       	callq  400e70 <exit@plt>
  401d68:	85 db                	test   %ebx,%ebx
  401d6a:	74 19                	je     401d85 <notify_server+0x137>
  401d6c:	bf b0 35 40 00       	mov    $0x4035b0,%edi
  401d71:	e8 7a ef ff ff       	callq  400cf0 <puts@plt>
  401d76:	bf 93 34 40 00       	mov    $0x403493,%edi
  401d7b:	e8 70 ef ff ff       	callq  400cf0 <puts@plt>
  401d80:	e9 9b 00 00 00       	jmpq   401e20 <notify_server+0x1d2>
  401d85:	bf 9d 34 40 00       	mov    $0x40349d,%edi
  401d8a:	e8 61 ef ff ff       	callq  400cf0 <puts@plt>
  401d8f:	e9 8c 00 00 00       	jmpq   401e20 <notify_server+0x1d2>
  401d94:	85 db                	test   %ebx,%ebx
  401d96:	74 07                	je     401d9f <notify_server+0x151>
  401d98:	ba 61 34 40 00       	mov    $0x403461,%edx
  401d9d:	eb 05                	jmp    401da4 <notify_server+0x156>
  401d9f:	ba 66 34 40 00       	mov    $0x403466,%edx
  401da4:	be e8 35 40 00       	mov    $0x4035e8,%esi
  401da9:	bf 01 00 00 00       	mov    $0x1,%edi
  401dae:	b8 00 00 00 00       	mov    $0x0,%eax
  401db3:	e8 68 f0 ff ff       	callq  400e20 <__printf_chk@plt>
  401db8:	48 8b 15 a1 33 20 00 	mov    0x2033a1(%rip),%rdx        # 605160 <user_id>
  401dbf:	be a4 34 40 00       	mov    $0x4034a4,%esi
  401dc4:	bf 01 00 00 00       	mov    $0x1,%edi
  401dc9:	b8 00 00 00 00       	mov    $0x0,%eax
  401dce:	e8 4d f0 ff ff       	callq  400e20 <__printf_chk@plt>
  401dd3:	48 8b 15 9e 33 20 00 	mov    0x20339e(%rip),%rdx        # 605178 <course>
  401dda:	be b1 34 40 00       	mov    $0x4034b1,%esi
  401ddf:	bf 01 00 00 00       	mov    $0x1,%edi
  401de4:	b8 00 00 00 00       	mov    $0x0,%eax
  401de9:	e8 32 f0 ff ff       	callq  400e20 <__printf_chk@plt>
  401dee:	48 8b 15 7b 33 20 00 	mov    0x20337b(%rip),%rdx        # 605170 <lab>
  401df5:	be bd 34 40 00       	mov    $0x4034bd,%esi
  401dfa:	bf 01 00 00 00       	mov    $0x1,%edi
  401dff:	b8 00 00 00 00       	mov    $0x0,%eax
  401e04:	e8 17 f0 ff ff       	callq  400e20 <__printf_chk@plt>
  401e09:	48 89 e2             	mov    %rsp,%rdx
  401e0c:	be c6 34 40 00       	mov    $0x4034c6,%esi
  401e11:	bf 01 00 00 00       	mov    $0x1,%edi
  401e16:	b8 00 00 00 00       	mov    $0x0,%eax
  401e1b:	e8 00 f0 ff ff       	callq  400e20 <__printf_chk@plt>
  401e20:	48 8b 84 24 08 40 00 	mov    0x4008(%rsp),%rax
  401e27:	00 
  401e28:	64 48 33 04 25 28 00 	xor    %fs:0x28,%rax
  401e2f:	00 00 
  401e31:	74 05                	je     401e38 <notify_server+0x1ea>
  401e33:	e8 d8 ee ff ff       	callq  400d10 <__stack_chk_fail@plt>
  401e38:	48 81 c4 10 40 00 00 	add    $0x4010,%rsp
  401e3f:	5b                   	pop    %rbx
  401e40:	c3                   	retq   

0000000000401e41 <validate>:
  401e41:	53                   	push   %rbx
  401e42:	89 fb                	mov    %edi,%ebx
  401e44:	83 3d dd 36 20 00 00 	cmpl   $0x0,0x2036dd(%rip)        # 605528 <is_checker>
  401e4b:	74 6b                	je     401eb8 <validate+0x77>
  401e4d:	39 3d c9 36 20 00    	cmp    %edi,0x2036c9(%rip)        # 60551c <vlevel>
  401e53:	74 14                	je     401e69 <validate+0x28>
  401e55:	bf d2 34 40 00       	mov    $0x4034d2,%edi
  401e5a:	e8 91 ee ff ff       	callq  400cf0 <puts@plt>
  401e5f:	b8 00 00 00 00       	mov    $0x0,%eax
  401e64:	e8 5e fd ff ff       	callq  401bc7 <check_fail>
  401e69:	8b 15 a9 36 20 00    	mov    0x2036a9(%rip),%edx        # 605518 <check_level>
  401e6f:	39 d7                	cmp    %edx,%edi
  401e71:	74 20                	je     401e93 <validate+0x52>
  401e73:	89 f9                	mov    %edi,%ecx
  401e75:	be 10 36 40 00       	mov    $0x403610,%esi
  401e7a:	bf 01 00 00 00       	mov    $0x1,%edi
  401e7f:	b8 00 00 00 00       	mov    $0x0,%eax
  401e84:	e8 97 ef ff ff       	callq  400e20 <__printf_chk@plt>
  401e89:	b8 00 00 00 00       	mov    $0x0,%eax
  401e8e:	e8 34 fd ff ff       	callq  401bc7 <check_fail>
  401e93:	0f be 15 ae 42 20 00 	movsbl 0x2042ae(%rip),%edx        # 606148 <target_prefix>
  401e9a:	41 b8 40 55 60 00    	mov    $0x605540,%r8d
  401ea0:	89 f9                	mov    %edi,%ecx
  401ea2:	be f0 34 40 00       	mov    $0x4034f0,%esi
  401ea7:	bf 01 00 00 00       	mov    $0x1,%edi
  401eac:	b8 00 00 00 00       	mov    $0x0,%eax
  401eb1:	e8 6a ef ff ff       	callq  400e20 <__printf_chk@plt>
  401eb6:	eb 49                	jmp    401f01 <validate+0xc0>
  401eb8:	3b 3d 5e 36 20 00    	cmp    0x20365e(%rip),%edi        # 60551c <vlevel>
  401ebe:	74 18                	je     401ed8 <validate+0x97>
  401ec0:	bf d2 34 40 00       	mov    $0x4034d2,%edi
  401ec5:	e8 26 ee ff ff       	callq  400cf0 <puts@plt>
  401eca:	89 de                	mov    %ebx,%esi
  401ecc:	bf 00 00 00 00       	mov    $0x0,%edi
  401ed1:	e8 78 fd ff ff       	callq  401c4e <notify_server>
  401ed6:	eb 29                	jmp    401f01 <validate+0xc0>
  401ed8:	0f be 0d 69 42 20 00 	movsbl 0x204269(%rip),%ecx        # 606148 <target_prefix>
  401edf:	89 fa                	mov    %edi,%edx
  401ee1:	be 38 36 40 00       	mov    $0x403638,%esi
  401ee6:	bf 01 00 00 00       	mov    $0x1,%edi
  401eeb:	b8 00 00 00 00       	mov    $0x0,%eax
  401ef0:	e8 2b ef ff ff       	callq  400e20 <__printf_chk@plt>
  401ef5:	89 de                	mov    %ebx,%esi
  401ef7:	bf 01 00 00 00       	mov    $0x1,%edi
  401efc:	e8 4d fd ff ff       	callq  401c4e <notify_server>
  401f01:	5b                   	pop    %rbx
  401f02:	c3                   	retq   

0000000000401f03 <fail>:
  401f03:	48 83 ec 08          	sub    $0x8,%rsp
  401f07:	83 3d 1a 36 20 00 00 	cmpl   $0x0,0x20361a(%rip)        # 605528 <is_checker>
  401f0e:	74 0a                	je     401f1a <fail+0x17>
  401f10:	b8 00 00 00 00       	mov    $0x0,%eax
  401f15:	e8 ad fc ff ff       	callq  401bc7 <check_fail>
  401f1a:	89 fe                	mov    %edi,%esi
  401f1c:	bf 00 00 00 00       	mov    $0x0,%edi
  401f21:	e8 28 fd ff ff       	callq  401c4e <notify_server>
  401f26:	48 83 c4 08          	add    $0x8,%rsp
  401f2a:	c3                   	retq   

0000000000401f2b <bushandler>:
  401f2b:	48 83 ec 08          	sub    $0x8,%rsp
  401f2f:	83 3d f2 35 20 00 00 	cmpl   $0x0,0x2035f2(%rip)        # 605528 <is_checker>
  401f36:	74 14                	je     401f4c <bushandler+0x21>
  401f38:	bf 05 35 40 00       	mov    $0x403505,%edi
  401f3d:	e8 ae ed ff ff       	callq  400cf0 <puts@plt>
  401f42:	b8 00 00 00 00       	mov    $0x0,%eax
  401f47:	e8 7b fc ff ff       	callq  401bc7 <check_fail>
  401f4c:	bf 70 36 40 00       	mov    $0x403670,%edi
  401f51:	e8 9a ed ff ff       	callq  400cf0 <puts@plt>
  401f56:	bf 0f 35 40 00       	mov    $0x40350f,%edi
  401f5b:	e8 90 ed ff ff       	callq  400cf0 <puts@plt>
  401f60:	be 00 00 00 00       	mov    $0x0,%esi
  401f65:	bf 00 00 00 00       	mov    $0x0,%edi
  401f6a:	e8 df fc ff ff       	callq  401c4e <notify_server>
  401f6f:	bf 01 00 00 00       	mov    $0x1,%edi
  401f74:	e8 f7 ee ff ff       	callq  400e70 <exit@plt>

0000000000401f79 <seghandler>:
  401f79:	48 83 ec 08          	sub    $0x8,%rsp
  401f7d:	83 3d a4 35 20 00 00 	cmpl   $0x0,0x2035a4(%rip)        # 605528 <is_checker>
  401f84:	74 14                	je     401f9a <seghandler+0x21>
  401f86:	bf 25 35 40 00       	mov    $0x403525,%edi
  401f8b:	e8 60 ed ff ff       	callq  400cf0 <puts@plt>
  401f90:	b8 00 00 00 00       	mov    $0x0,%eax
  401f95:	e8 2d fc ff ff       	callq  401bc7 <check_fail>
  401f9a:	bf 90 36 40 00       	mov    $0x403690,%edi
  401f9f:	e8 4c ed ff ff       	callq  400cf0 <puts@plt>
  401fa4:	bf 0f 35 40 00       	mov    $0x40350f,%edi
  401fa9:	e8 42 ed ff ff       	callq  400cf0 <puts@plt>
  401fae:	be 00 00 00 00       	mov    $0x0,%esi
  401fb3:	bf 00 00 00 00       	mov    $0x0,%edi
  401fb8:	e8 91 fc ff ff       	callq  401c4e <notify_server>
  401fbd:	bf 01 00 00 00       	mov    $0x1,%edi
  401fc2:	e8 a9 ee ff ff       	callq  400e70 <exit@plt>

0000000000401fc7 <illegalhandler>:
  401fc7:	48 83 ec 08          	sub    $0x8,%rsp
  401fcb:	83 3d 56 35 20 00 00 	cmpl   $0x0,0x203556(%rip)        # 605528 <is_checker>
  401fd2:	74 14                	je     401fe8 <illegalhandler+0x21>
  401fd4:	bf 38 35 40 00       	mov    $0x403538,%edi
  401fd9:	e8 12 ed ff ff       	callq  400cf0 <puts@plt>
  401fde:	b8 00 00 00 00       	mov    $0x0,%eax
  401fe3:	e8 df fb ff ff       	callq  401bc7 <check_fail>
  401fe8:	bf b8 36 40 00       	mov    $0x4036b8,%edi
  401fed:	e8 fe ec ff ff       	callq  400cf0 <puts@plt>
  401ff2:	bf 0f 35 40 00       	mov    $0x40350f,%edi
  401ff7:	e8 f4 ec ff ff       	callq  400cf0 <puts@plt>
  401ffc:	be 00 00 00 00       	mov    $0x0,%esi
  402001:	bf 00 00 00 00       	mov    $0x0,%edi
  402006:	e8 43 fc ff ff       	callq  401c4e <notify_server>
  40200b:	bf 01 00 00 00       	mov    $0x1,%edi
  402010:	e8 5b ee ff ff       	callq  400e70 <exit@plt>

0000000000402015 <sigalrmhandler>:
  402015:	48 83 ec 08          	sub    $0x8,%rsp
  402019:	83 3d 08 35 20 00 00 	cmpl   $0x0,0x203508(%rip)        # 605528 <is_checker>
  402020:	74 14                	je     402036 <sigalrmhandler+0x21>
  402022:	bf 4c 35 40 00       	mov    $0x40354c,%edi
  402027:	e8 c4 ec ff ff       	callq  400cf0 <puts@plt>
  40202c:	b8 00 00 00 00       	mov    $0x0,%eax
  402031:	e8 91 fb ff ff       	callq  401bc7 <check_fail>
  402036:	ba 05 00 00 00       	mov    $0x5,%edx
  40203b:	be e8 36 40 00       	mov    $0x4036e8,%esi
  402040:	bf 01 00 00 00       	mov    $0x1,%edi
  402045:	b8 00 00 00 00       	mov    $0x0,%eax
  40204a:	e8 d1 ed ff ff       	callq  400e20 <__printf_chk@plt>
  40204f:	be 00 00 00 00       	mov    $0x0,%esi
  402054:	bf 00 00 00 00       	mov    $0x0,%edi
  402059:	e8 f0 fb ff ff       	callq  401c4e <notify_server>
  40205e:	bf 01 00 00 00       	mov    $0x1,%edi
  402063:	e8 08 ee ff ff       	callq  400e70 <exit@plt>

0000000000402068 <launch>:
  402068:	55                   	push   %rbp
  402069:	48 89 e5             	mov    %rsp,%rbp
  40206c:	48 83 ec 10          	sub    $0x10,%rsp
  402070:	48 89 fa             	mov    %rdi,%rdx
  402073:	64 48 8b 04 25 28 00 	mov    %fs:0x28,%rax
  40207a:	00 00 
  40207c:	48 89 45 f8          	mov    %rax,-0x8(%rbp)
  402080:	31 c0                	xor    %eax,%eax
  402082:	48 8d 47 1e          	lea    0x1e(%rdi),%rax
  402086:	48 83 e0 f0          	and    $0xfffffffffffffff0,%rax
  40208a:	48 29 c4             	sub    %rax,%rsp
  40208d:	48 8d 7c 24 0f       	lea    0xf(%rsp),%rdi
  402092:	48 83 e7 f0          	and    $0xfffffffffffffff0,%rdi
  402096:	be f4 00 00 00       	mov    $0xf4,%esi
  40209b:	e8 90 ec ff ff       	callq  400d30 <memset@plt>
  4020a0:	48 8b 05 19 34 20 00 	mov    0x203419(%rip),%rax        # 6054c0 <stdin@@GLIBC_2.2.5>
  4020a7:	48 39 05 62 34 20 00 	cmp    %rax,0x203462(%rip)        # 605510 <infile>
  4020ae:	75 14                	jne    4020c4 <launch+0x5c>
  4020b0:	be 54 35 40 00       	mov    $0x403554,%esi
  4020b5:	bf 01 00 00 00       	mov    $0x1,%edi
  4020ba:	b8 00 00 00 00       	mov    $0x0,%eax
  4020bf:	e8 5c ed ff ff       	callq  400e20 <__printf_chk@plt>
  4020c4:	c7 05 4e 34 20 00 00 	movl   $0x0,0x20344e(%rip)        # 60551c <vlevel>
  4020cb:	00 00 00 
  4020ce:	b8 00 00 00 00       	mov    $0x0,%eax
  4020d3:	e8 37 f9 ff ff       	callq  401a0f <test>
  4020d8:	83 3d 49 34 20 00 00 	cmpl   $0x0,0x203449(%rip)        # 605528 <is_checker>
  4020df:	74 14                	je     4020f5 <launch+0x8d>
  4020e1:	bf 61 35 40 00       	mov    $0x403561,%edi
  4020e6:	e8 05 ec ff ff       	callq  400cf0 <puts@plt>
  4020eb:	b8 00 00 00 00       	mov    $0x0,%eax
  4020f0:	e8 d2 fa ff ff       	callq  401bc7 <check_fail>
  4020f5:	bf 6c 35 40 00       	mov    $0x40356c,%edi
  4020fa:	e8 f1 eb ff ff       	callq  400cf0 <puts@plt>
  4020ff:	48 8b 45 f8          	mov    -0x8(%rbp),%rax
  402103:	64 48 33 04 25 28 00 	xor    %fs:0x28,%rax
  40210a:	00 00 
  40210c:	74 05                	je     402113 <launch+0xab>
  40210e:	e8 fd eb ff ff       	callq  400d10 <__stack_chk_fail@plt>
  402113:	c9                   	leaveq 
  402114:	c3                   	retq   

0000000000402115 <stable_launch>:
  402115:	53                   	push   %rbx
  402116:	48 89 3d eb 33 20 00 	mov    %rdi,0x2033eb(%rip)        # 605508 <global_offset>
  40211d:	41 b9 00 00 00 00    	mov    $0x0,%r9d
  402123:	41 b8 00 00 00 00    	mov    $0x0,%r8d
  402129:	b9 32 01 00 00       	mov    $0x132,%ecx
  40212e:	ba 07 00 00 00       	mov    $0x7,%edx
  402133:	be 00 00 10 00       	mov    $0x100000,%esi
  402138:	bf 00 60 58 55       	mov    $0x55586000,%edi
  40213d:	e8 de eb ff ff       	callq  400d20 <mmap@plt>
  402142:	48 89 c3             	mov    %rax,%rbx
  402145:	48 3d 00 60 58 55    	cmp    $0x55586000,%rax
  40214b:	74 37                	je     402184 <stable_launch+0x6f>
  40214d:	be 00 00 10 00       	mov    $0x100000,%esi
  402152:	48 89 c7             	mov    %rax,%rdi
  402155:	e8 b6 ec ff ff       	callq  400e10 <munmap@plt>
  40215a:	b9 00 60 58 55       	mov    $0x55586000,%ecx
  40215f:	ba 20 37 40 00       	mov    $0x403720,%edx
  402164:	be 01 00 00 00       	mov    $0x1,%esi
  402169:	48 8b 3d 70 33 20 00 	mov    0x203370(%rip),%rdi        # 6054e0 <stderr@@GLIBC_2.2.5>
  402170:	b8 00 00 00 00       	mov    $0x0,%eax
  402175:	e8 16 ed ff ff       	callq  400e90 <__fprintf_chk@plt>
  40217a:	bf 01 00 00 00       	mov    $0x1,%edi
  40217f:	e8 ec ec ff ff       	callq  400e70 <exit@plt>
  402184:	48 8d 90 f8 ff 0f 00 	lea    0xffff8(%rax),%rdx
  40218b:	48 89 15 be 3f 20 00 	mov    %rdx,0x203fbe(%rip)        # 606150 <stack_top>
  402192:	48 89 e0             	mov    %rsp,%rax
  402195:	48 89 d4             	mov    %rdx,%rsp
  402198:	48 89 c2             	mov    %rax,%rdx
  40219b:	48 89 15 5e 33 20 00 	mov    %rdx,0x20335e(%rip)        # 605500 <global_save_stack>
  4021a2:	48 8b 3d 5f 33 20 00 	mov    0x20335f(%rip),%rdi        # 605508 <global_offset>
  4021a9:	e8 ba fe ff ff       	callq  402068 <launch>
  4021ae:	48 8b 05 4b 33 20 00 	mov    0x20334b(%rip),%rax        # 605500 <global_save_stack>
  4021b5:	48 89 c4             	mov    %rax,%rsp
  4021b8:	be 00 00 10 00       	mov    $0x100000,%esi
  4021bd:	48 89 df             	mov    %rbx,%rdi
  4021c0:	e8 4b ec ff ff       	callq  400e10 <munmap@plt>
  4021c5:	5b                   	pop    %rbx
  4021c6:	c3                   	retq   

00000000004021c7 <rio_readinitb>:
  4021c7:	89 37                	mov    %esi,(%rdi)
  4021c9:	c7 47 04 00 00 00 00 	movl   $0x0,0x4(%rdi)
  4021d0:	48 8d 47 10          	lea    0x10(%rdi),%rax
  4021d4:	48 89 47 08          	mov    %rax,0x8(%rdi)
  4021d8:	c3                   	retq   

00000000004021d9 <sigalrm_handler>:
  4021d9:	48 83 ec 08          	sub    $0x8,%rsp
  4021dd:	b9 00 00 00 00       	mov    $0x0,%ecx
  4021e2:	ba 60 37 40 00       	mov    $0x403760,%edx
  4021e7:	be 01 00 00 00       	mov    $0x1,%esi
  4021ec:	48 8b 3d ed 32 20 00 	mov    0x2032ed(%rip),%rdi        # 6054e0 <stderr@@GLIBC_2.2.5>
  4021f3:	b8 00 00 00 00       	mov    $0x0,%eax
  4021f8:	e8 93 ec ff ff       	callq  400e90 <__fprintf_chk@plt>
  4021fd:	bf 01 00 00 00       	mov    $0x1,%edi
  402202:	e8 69 ec ff ff       	callq  400e70 <exit@plt>

0000000000402207 <rio_writen>:
  402207:	41 55                	push   %r13
  402209:	41 54                	push   %r12
  40220b:	55                   	push   %rbp
  40220c:	53                   	push   %rbx
  40220d:	48 83 ec 08          	sub    $0x8,%rsp
  402211:	41 89 fc             	mov    %edi,%r12d
  402214:	48 89 f5             	mov    %rsi,%rbp
  402217:	49 89 d5             	mov    %rdx,%r13
  40221a:	48 89 d3             	mov    %rdx,%rbx
  40221d:	eb 28                	jmp    402247 <rio_writen+0x40>
  40221f:	48 89 da             	mov    %rbx,%rdx
  402222:	48 89 ee             	mov    %rbp,%rsi
  402225:	44 89 e7             	mov    %r12d,%edi
  402228:	e8 d3 ea ff ff       	callq  400d00 <write@plt>
  40222d:	48 85 c0             	test   %rax,%rax
  402230:	7f 0f                	jg     402241 <rio_writen+0x3a>
  402232:	e8 79 ea ff ff       	callq  400cb0 <__errno_location@plt>
  402237:	83 38 04             	cmpl   $0x4,(%rax)
  40223a:	75 15                	jne    402251 <rio_writen+0x4a>
  40223c:	b8 00 00 00 00       	mov    $0x0,%eax
  402241:	48 29 c3             	sub    %rax,%rbx
  402244:	48 01 c5             	add    %rax,%rbp
  402247:	48 85 db             	test   %rbx,%rbx
  40224a:	75 d3                	jne    40221f <rio_writen+0x18>
  40224c:	4c 89 e8             	mov    %r13,%rax
  40224f:	eb 07                	jmp    402258 <rio_writen+0x51>
  402251:	48 c7 c0 ff ff ff ff 	mov    $0xffffffffffffffff,%rax
  402258:	48 83 c4 08          	add    $0x8,%rsp
  40225c:	5b                   	pop    %rbx
  40225d:	5d                   	pop    %rbp
  40225e:	41 5c                	pop    %r12
  402260:	41 5d                	pop    %r13
  402262:	c3                   	retq   

0000000000402263 <rio_read>:
  402263:	41 55                	push   %r13
  402265:	41 54                	push   %r12
  402267:	55                   	push   %rbp
  402268:	53                   	push   %rbx
  402269:	48 83 ec 08          	sub    $0x8,%rsp
  40226d:	48 89 fb             	mov    %rdi,%rbx
  402270:	49 89 f5             	mov    %rsi,%r13
  402273:	49 89 d4             	mov    %rdx,%r12
  402276:	eb 2e                	jmp    4022a6 <rio_read+0x43>
  402278:	48 8d 6b 10          	lea    0x10(%rbx),%rbp
  40227c:	8b 3b                	mov    (%rbx),%edi
  40227e:	ba 00 20 00 00       	mov    $0x2000,%edx
  402283:	48 89 ee             	mov    %rbp,%rsi
  402286:	e8 d5 ea ff ff       	callq  400d60 <read@plt>
  40228b:	89 43 04             	mov    %eax,0x4(%rbx)
  40228e:	85 c0                	test   %eax,%eax
  402290:	79 0c                	jns    40229e <rio_read+0x3b>
  402292:	e8 19 ea ff ff       	callq  400cb0 <__errno_location@plt>
  402297:	83 38 04             	cmpl   $0x4,(%rax)
  40229a:	74 0a                	je     4022a6 <rio_read+0x43>
  40229c:	eb 37                	jmp    4022d5 <rio_read+0x72>
  40229e:	85 c0                	test   %eax,%eax
  4022a0:	74 3c                	je     4022de <rio_read+0x7b>
  4022a2:	48 89 6b 08          	mov    %rbp,0x8(%rbx)
  4022a6:	8b 6b 04             	mov    0x4(%rbx),%ebp
  4022a9:	85 ed                	test   %ebp,%ebp
  4022ab:	7e cb                	jle    402278 <rio_read+0x15>
  4022ad:	89 e8                	mov    %ebp,%eax
  4022af:	49 39 c4             	cmp    %rax,%r12
  4022b2:	77 03                	ja     4022b7 <rio_read+0x54>
  4022b4:	44 89 e5             	mov    %r12d,%ebp
  4022b7:	4c 63 e5             	movslq %ebp,%r12
  4022ba:	48 8b 73 08          	mov    0x8(%rbx),%rsi
  4022be:	4c 89 e2             	mov    %r12,%rdx
  4022c1:	4c 89 ef             	mov    %r13,%rdi
  4022c4:	e8 f7 ea ff ff       	callq  400dc0 <memcpy@plt>
  4022c9:	4c 01 63 08          	add    %r12,0x8(%rbx)
  4022cd:	29 6b 04             	sub    %ebp,0x4(%rbx)
  4022d0:	4c 89 e0             	mov    %r12,%rax
  4022d3:	eb 0e                	jmp    4022e3 <rio_read+0x80>
  4022d5:	48 c7 c0 ff ff ff ff 	mov    $0xffffffffffffffff,%rax
  4022dc:	eb 05                	jmp    4022e3 <rio_read+0x80>
  4022de:	b8 00 00 00 00       	mov    $0x0,%eax
  4022e3:	48 83 c4 08          	add    $0x8,%rsp
  4022e7:	5b                   	pop    %rbx
  4022e8:	5d                   	pop    %rbp
  4022e9:	41 5c                	pop    %r12
  4022eb:	41 5d                	pop    %r13
  4022ed:	c3                   	retq   

00000000004022ee <rio_readlineb>:
  4022ee:	41 55                	push   %r13
  4022f0:	41 54                	push   %r12
  4022f2:	55                   	push   %rbp
  4022f3:	53                   	push   %rbx
  4022f4:	48 83 ec 18          	sub    $0x18,%rsp
  4022f8:	49 89 fd             	mov    %rdi,%r13
  4022fb:	48 89 f5             	mov    %rsi,%rbp
  4022fe:	49 89 d4             	mov    %rdx,%r12
  402301:	64 48 8b 04 25 28 00 	mov    %fs:0x28,%rax
  402308:	00 00 
  40230a:	48 89 44 24 08       	mov    %rax,0x8(%rsp)
  40230f:	31 c0                	xor    %eax,%eax
  402311:	bb 01 00 00 00       	mov    $0x1,%ebx
  402316:	eb 3f                	jmp    402357 <rio_readlineb+0x69>
  402318:	ba 01 00 00 00       	mov    $0x1,%edx
  40231d:	48 8d 74 24 07       	lea    0x7(%rsp),%rsi
  402322:	4c 89 ef             	mov    %r13,%rdi
  402325:	e8 39 ff ff ff       	callq  402263 <rio_read>
  40232a:	83 f8 01             	cmp    $0x1,%eax
  40232d:	75 15                	jne    402344 <rio_readlineb+0x56>
  40232f:	48 8d 45 01          	lea    0x1(%rbp),%rax
  402333:	0f b6 54 24 07       	movzbl 0x7(%rsp),%edx
  402338:	88 55 00             	mov    %dl,0x0(%rbp)
  40233b:	80 7c 24 07 0a       	cmpb   $0xa,0x7(%rsp)
  402340:	75 0e                	jne    402350 <rio_readlineb+0x62>
  402342:	eb 1a                	jmp    40235e <rio_readlineb+0x70>
  402344:	85 c0                	test   %eax,%eax
  402346:	75 22                	jne    40236a <rio_readlineb+0x7c>
  402348:	48 83 fb 01          	cmp    $0x1,%rbx
  40234c:	75 13                	jne    402361 <rio_readlineb+0x73>
  40234e:	eb 23                	jmp    402373 <rio_readlineb+0x85>
  402350:	48 83 c3 01          	add    $0x1,%rbx
  402354:	48 89 c5             	mov    %rax,%rbp
  402357:	4c 39 e3             	cmp    %r12,%rbx
  40235a:	72 bc                	jb     402318 <rio_readlineb+0x2a>
  40235c:	eb 03                	jmp    402361 <rio_readlineb+0x73>
  40235e:	48 89 c5             	mov    %rax,%rbp
  402361:	c6 45 00 00          	movb   $0x0,0x0(%rbp)
  402365:	48 89 d8             	mov    %rbx,%rax
  402368:	eb 0e                	jmp    402378 <rio_readlineb+0x8a>
  40236a:	48 c7 c0 ff ff ff ff 	mov    $0xffffffffffffffff,%rax
  402371:	eb 05                	jmp    402378 <rio_readlineb+0x8a>
  402373:	b8 00 00 00 00       	mov    $0x0,%eax
  402378:	48 8b 4c 24 08       	mov    0x8(%rsp),%rcx
  40237d:	64 48 33 0c 25 28 00 	xor    %fs:0x28,%rcx
  402384:	00 00 
  402386:	74 05                	je     40238d <rio_readlineb+0x9f>
  402388:	e8 83 e9 ff ff       	callq  400d10 <__stack_chk_fail@plt>
  40238d:	48 83 c4 18          	add    $0x18,%rsp
  402391:	5b                   	pop    %rbx
  402392:	5d                   	pop    %rbp
  402393:	41 5c                	pop    %r12
  402395:	41 5d                	pop    %r13
  402397:	c3                   	retq   

0000000000402398 <urlencode>:
  402398:	41 54                	push   %r12
  40239a:	55                   	push   %rbp
  40239b:	53                   	push   %rbx
  40239c:	48 83 ec 10          	sub    $0x10,%rsp
  4023a0:	48 89 fb             	mov    %rdi,%rbx
  4023a3:	48 89 f5             	mov    %rsi,%rbp
  4023a6:	64 48 8b 04 25 28 00 	mov    %fs:0x28,%rax
  4023ad:	00 00 
  4023af:	48 89 44 24 08       	mov    %rax,0x8(%rsp)
  4023b4:	31 c0                	xor    %eax,%eax
  4023b6:	48 c7 c1 ff ff ff ff 	mov    $0xffffffffffffffff,%rcx
  4023bd:	f2 ae                	repnz scas %es:(%rdi),%al
  4023bf:	48 f7 d1             	not    %rcx
  4023c2:	8d 41 ff             	lea    -0x1(%rcx),%eax
  4023c5:	e9 aa 00 00 00       	jmpq   402474 <urlencode+0xdc>
  4023ca:	44 0f b6 03          	movzbl (%rbx),%r8d
  4023ce:	41 80 f8 2a          	cmp    $0x2a,%r8b
  4023d2:	0f 94 c2             	sete   %dl
  4023d5:	41 80 f8 2d          	cmp    $0x2d,%r8b
  4023d9:	0f 94 c0             	sete   %al
  4023dc:	08 c2                	or     %al,%dl
  4023de:	75 24                	jne    402404 <urlencode+0x6c>
  4023e0:	41 80 f8 2e          	cmp    $0x2e,%r8b
  4023e4:	74 1e                	je     402404 <urlencode+0x6c>
  4023e6:	41 80 f8 5f          	cmp    $0x5f,%r8b
  4023ea:	74 18                	je     402404 <urlencode+0x6c>
  4023ec:	41 8d 40 d0          	lea    -0x30(%r8),%eax
  4023f0:	3c 09                	cmp    $0x9,%al
  4023f2:	76 10                	jbe    402404 <urlencode+0x6c>
  4023f4:	41 8d 40 bf          	lea    -0x41(%r8),%eax
  4023f8:	3c 19                	cmp    $0x19,%al
  4023fa:	76 08                	jbe    402404 <urlencode+0x6c>
  4023fc:	41 8d 40 9f          	lea    -0x61(%r8),%eax
  402400:	3c 19                	cmp    $0x19,%al
  402402:	77 0a                	ja     40240e <urlencode+0x76>
  402404:	44 88 45 00          	mov    %r8b,0x0(%rbp)
  402408:	48 8d 6d 01          	lea    0x1(%rbp),%rbp
  40240c:	eb 5f                	jmp    40246d <urlencode+0xd5>
  40240e:	41 80 f8 20          	cmp    $0x20,%r8b
  402412:	75 0a                	jne    40241e <urlencode+0x86>
  402414:	c6 45 00 2b          	movb   $0x2b,0x0(%rbp)
  402418:	48 8d 6d 01          	lea    0x1(%rbp),%rbp
  40241c:	eb 4f                	jmp    40246d <urlencode+0xd5>
  40241e:	41 8d 40 e0          	lea    -0x20(%r8),%eax
  402422:	3c 5f                	cmp    $0x5f,%al
  402424:	0f 96 c2             	setbe  %dl
  402427:	41 80 f8 09          	cmp    $0x9,%r8b
  40242b:	0f 94 c0             	sete   %al
  40242e:	08 c2                	or     %al,%dl
  402430:	74 50                	je     402482 <urlencode+0xea>
  402432:	45 0f b6 c0          	movzbl %r8b,%r8d
  402436:	b9 18 38 40 00       	mov    $0x403818,%ecx
  40243b:	ba 08 00 00 00       	mov    $0x8,%edx
  402440:	be 01 00 00 00       	mov    $0x1,%esi
  402445:	48 89 e7             	mov    %rsp,%rdi
  402448:	b8 00 00 00 00       	mov    $0x0,%eax
  40244d:	e8 4e ea ff ff       	callq  400ea0 <__sprintf_chk@plt>
  402452:	0f b6 04 24          	movzbl (%rsp),%eax
  402456:	88 45 00             	mov    %al,0x0(%rbp)
  402459:	0f b6 44 24 01       	movzbl 0x1(%rsp),%eax
  40245e:	88 45 01             	mov    %al,0x1(%rbp)
  402461:	0f b6 44 24 02       	movzbl 0x2(%rsp),%eax
  402466:	88 45 02             	mov    %al,0x2(%rbp)
  402469:	48 8d 6d 03          	lea    0x3(%rbp),%rbp
  40246d:	48 83 c3 01          	add    $0x1,%rbx
  402471:	44 89 e0             	mov    %r12d,%eax
  402474:	44 8d 60 ff          	lea    -0x1(%rax),%r12d
  402478:	85 c0                	test   %eax,%eax
  40247a:	0f 85 4a ff ff ff    	jne    4023ca <urlencode+0x32>
  402480:	eb 05                	jmp    402487 <urlencode+0xef>
  402482:	b8 ff ff ff ff       	mov    $0xffffffff,%eax
  402487:	48 8b 74 24 08       	mov    0x8(%rsp),%rsi
  40248c:	64 48 33 34 25 28 00 	xor    %fs:0x28,%rsi
  402493:	00 00 
  402495:	74 05                	je     40249c <urlencode+0x104>
  402497:	e8 74 e8 ff ff       	callq  400d10 <__stack_chk_fail@plt>
  40249c:	48 83 c4 10          	add    $0x10,%rsp
  4024a0:	5b                   	pop    %rbx
  4024a1:	5d                   	pop    %rbp
  4024a2:	41 5c                	pop    %r12
  4024a4:	c3                   	retq   

00000000004024a5 <submitr>:
  4024a5:	41 57                	push   %r15
  4024a7:	41 56                	push   %r14
  4024a9:	41 55                	push   %r13
  4024ab:	41 54                	push   %r12
  4024ad:	55                   	push   %rbp
  4024ae:	53                   	push   %rbx
  4024af:	48 81 ec 58 a0 00 00 	sub    $0xa058,%rsp
  4024b6:	49 89 fd             	mov    %rdi,%r13
  4024b9:	89 74 24 0c          	mov    %esi,0xc(%rsp)
  4024bd:	48 89 14 24          	mov    %rdx,(%rsp)
  4024c1:	49 89 ce             	mov    %rcx,%r14
  4024c4:	4d 89 c7             	mov    %r8,%r15
  4024c7:	4d 89 cc             	mov    %r9,%r12
  4024ca:	48 8b 9c 24 90 a0 00 	mov    0xa090(%rsp),%rbx
  4024d1:	00 
  4024d2:	64 48 8b 04 25 28 00 	mov    %fs:0x28,%rax
  4024d9:	00 00 
  4024db:	48 89 84 24 48 a0 00 	mov    %rax,0xa048(%rsp)
  4024e2:	00 
  4024e3:	31 c0                	xor    %eax,%eax
  4024e5:	c7 44 24 1c 00 00 00 	movl   $0x0,0x1c(%rsp)
  4024ec:	00 
  4024ed:	ba 00 00 00 00       	mov    $0x0,%edx
  4024f2:	be 01 00 00 00       	mov    $0x1,%esi
  4024f7:	bf 02 00 00 00       	mov    $0x2,%edi
  4024fc:	e8 af e9 ff ff       	callq  400eb0 <socket@plt>
  402501:	85 c0                	test   %eax,%eax
  402503:	79 4e                	jns    402553 <submitr+0xae>
  402505:	48 b8 45 72 72 6f 72 	movabs $0x43203a726f727245,%rax
  40250c:	3a 20 43 
  40250f:	48 89 03             	mov    %rax,(%rbx)
  402512:	48 b8 6c 69 65 6e 74 	movabs $0x6e7520746e65696c,%rax
  402519:	20 75 6e 
  40251c:	48 89 43 08          	mov    %rax,0x8(%rbx)
  402520:	48 b8 61 62 6c 65 20 	movabs $0x206f7420656c6261,%rax
  402527:	74 6f 20 
  40252a:	48 89 43 10          	mov    %rax,0x10(%rbx)
  40252e:	48 b8 63 72 65 61 74 	movabs $0x7320657461657263,%rax
  402535:	65 20 73 
  402538:	48 89 43 18          	mov    %rax,0x18(%rbx)
  40253c:	c7 43 20 6f 63 6b 65 	movl   $0x656b636f,0x20(%rbx)
  402543:	66 c7 43 24 74 00    	movw   $0x74,0x24(%rbx)
  402549:	b8 ff ff ff ff       	mov    $0xffffffff,%eax
  40254e:	e9 b3 06 00 00       	jmpq   402c06 <submitr+0x761>
  402553:	89 c5                	mov    %eax,%ebp
  402555:	4c 89 ef             	mov    %r13,%rdi
  402558:	e8 33 e8 ff ff       	callq  400d90 <gethostbyname@plt>
  40255d:	48 85 c0             	test   %rax,%rax
  402560:	75 75                	jne    4025d7 <submitr+0x132>
  402562:	48 b8 45 72 72 6f 72 	movabs $0x44203a726f727245,%rax
  402569:	3a 20 44 
  40256c:	48 89 03             	mov    %rax,(%rbx)
  40256f:	48 b8 4e 53 20 69 73 	movabs $0x6e7520736920534e,%rax
  402576:	20 75 6e 
  402579:	48 89 43 08          	mov    %rax,0x8(%rbx)
  40257d:	48 b8 61 62 6c 65 20 	movabs $0x206f7420656c6261,%rax
  402584:	74 6f 20 
  402587:	48 89 43 10          	mov    %rax,0x10(%rbx)
  40258b:	48 b8 72 65 73 6f 6c 	movabs $0x2065766c6f736572,%rax
  402592:	76 65 20 
  402595:	48 89 43 18          	mov    %rax,0x18(%rbx)
  402599:	48 b8 41 75 74 6f 6c 	movabs $0x2062616c6f747541,%rax
  4025a0:	61 62 20 
  4025a3:	48 89 43 20          	mov    %rax,0x20(%rbx)
  4025a7:	48 b8 73 65 72 76 65 	movabs $0x6120726576726573,%rax
  4025ae:	72 20 61 
  4025b1:	48 89 43 28          	mov    %rax,0x28(%rbx)
  4025b5:	c7 43 30 64 64 72 65 	movl   $0x65726464,0x30(%rbx)
  4025bc:	66 c7 43 34 73 73    	movw   $0x7373,0x34(%rbx)
  4025c2:	c6 43 36 00          	movb   $0x0,0x36(%rbx)
  4025c6:	89 ef                	mov    %ebp,%edi
  4025c8:	e8 83 e7 ff ff       	callq  400d50 <close@plt>
  4025cd:	b8 ff ff ff ff       	mov    $0xffffffff,%eax
  4025d2:	e9 2f 06 00 00       	jmpq   402c06 <submitr+0x761>
  4025d7:	48 c7 44 24 20 00 00 	movq   $0x0,0x20(%rsp)
  4025de:	00 00 
  4025e0:	48 c7 44 24 28 00 00 	movq   $0x0,0x28(%rsp)
  4025e7:	00 00 
  4025e9:	66 c7 44 24 20 02 00 	movw   $0x2,0x20(%rsp)
  4025f0:	48 63 50 14          	movslq 0x14(%rax),%rdx
  4025f4:	48 8b 40 18          	mov    0x18(%rax),%rax
  4025f8:	48 8b 30             	mov    (%rax),%rsi
  4025fb:	48 8d 7c 24 24       	lea    0x24(%rsp),%rdi
  402600:	b9 0c 00 00 00       	mov    $0xc,%ecx
  402605:	e8 96 e7 ff ff       	callq  400da0 <__memmove_chk@plt>
  40260a:	0f b7 44 24 0c       	movzwl 0xc(%rsp),%eax
  40260f:	66 c1 c8 08          	ror    $0x8,%ax
  402613:	66 89 44 24 22       	mov    %ax,0x22(%rsp)
  402618:	ba 10 00 00 00       	mov    $0x10,%edx
  40261d:	48 8d 74 24 20       	lea    0x20(%rsp),%rsi
  402622:	89 ef                	mov    %ebp,%edi
  402624:	e8 57 e8 ff ff       	callq  400e80 <connect@plt>
  402629:	85 c0                	test   %eax,%eax
  40262b:	79 67                	jns    402694 <submitr+0x1ef>
  40262d:	48 b8 45 72 72 6f 72 	movabs $0x55203a726f727245,%rax
  402634:	3a 20 55 
  402637:	48 89 03             	mov    %rax,(%rbx)
  40263a:	48 b8 6e 61 62 6c 65 	movabs $0x6f7420656c62616e,%rax
  402641:	20 74 6f 
  402644:	48 89 43 08          	mov    %rax,0x8(%rbx)
  402648:	48 b8 20 63 6f 6e 6e 	movabs $0x7463656e6e6f6320,%rax
  40264f:	65 63 74 
  402652:	48 89 43 10          	mov    %rax,0x10(%rbx)
  402656:	48 b8 20 74 6f 20 74 	movabs $0x20656874206f7420,%rax
  40265d:	68 65 20 
  402660:	48 89 43 18          	mov    %rax,0x18(%rbx)
  402664:	48 b8 41 75 74 6f 6c 	movabs $0x2062616c6f747541,%rax
  40266b:	61 62 20 
  40266e:	48 89 43 20          	mov    %rax,0x20(%rbx)
  402672:	c7 43 28 73 65 72 76 	movl   $0x76726573,0x28(%rbx)
  402679:	66 c7 43 2c 65 72    	movw   $0x7265,0x2c(%rbx)
  40267f:	c6 43 2e 00          	movb   $0x0,0x2e(%rbx)
  402683:	89 ef                	mov    %ebp,%edi
  402685:	e8 c6 e6 ff ff       	callq  400d50 <close@plt>
  40268a:	b8 ff ff ff ff       	mov    $0xffffffff,%eax
  40268f:	e9 72 05 00 00       	jmpq   402c06 <submitr+0x761>
  402694:	48 c7 c6 ff ff ff ff 	mov    $0xffffffffffffffff,%rsi
  40269b:	b8 00 00 00 00       	mov    $0x0,%eax
  4026a0:	48 89 f1             	mov    %rsi,%rcx
  4026a3:	4c 89 e7             	mov    %r12,%rdi
  4026a6:	f2 ae                	repnz scas %es:(%rdi),%al
  4026a8:	48 f7 d1             	not    %rcx
  4026ab:	48 89 ca             	mov    %rcx,%rdx
  4026ae:	48 89 f1             	mov    %rsi,%rcx
  4026b1:	48 8b 3c 24          	mov    (%rsp),%rdi
  4026b5:	f2 ae                	repnz scas %es:(%rdi),%al
  4026b7:	48 f7 d1             	not    %rcx
  4026ba:	49 89 c8             	mov    %rcx,%r8
  4026bd:	48 89 f1             	mov    %rsi,%rcx
  4026c0:	4c 89 f7             	mov    %r14,%rdi
  4026c3:	f2 ae                	repnz scas %es:(%rdi),%al
  4026c5:	48 f7 d1             	not    %rcx
  4026c8:	4d 8d 44 08 fe       	lea    -0x2(%r8,%rcx,1),%r8
  4026cd:	48 89 f1             	mov    %rsi,%rcx
  4026d0:	4c 89 ff             	mov    %r15,%rdi
  4026d3:	f2 ae                	repnz scas %es:(%rdi),%al
  4026d5:	48 89 c8             	mov    %rcx,%rax
  4026d8:	48 f7 d0             	not    %rax
  4026db:	49 8d 4c 00 ff       	lea    -0x1(%r8,%rax,1),%rcx
  4026e0:	48 8d 44 52 fd       	lea    -0x3(%rdx,%rdx,2),%rax
  4026e5:	48 8d 84 01 80 00 00 	lea    0x80(%rcx,%rax,1),%rax
  4026ec:	00 
  4026ed:	48 3d 00 20 00 00    	cmp    $0x2000,%rax
  4026f3:	76 72                	jbe    402767 <submitr+0x2c2>
  4026f5:	48 b8 45 72 72 6f 72 	movabs $0x52203a726f727245,%rax
  4026fc:	3a 20 52 
  4026ff:	48 89 03             	mov    %rax,(%rbx)
  402702:	48 b8 65 73 75 6c 74 	movabs $0x747320746c757365,%rax
  402709:	20 73 74 
  40270c:	48 89 43 08          	mov    %rax,0x8(%rbx)
  402710:	48 b8 72 69 6e 67 20 	movabs $0x6f6f7420676e6972,%rax
  402717:	74 6f 6f 
  40271a:	48 89 43 10          	mov    %rax,0x10(%rbx)
  40271e:	48 b8 20 6c 61 72 67 	movabs $0x202e656772616c20,%rax
  402725:	65 2e 20 
  402728:	48 89 43 18          	mov    %rax,0x18(%rbx)
  40272c:	48 b8 49 6e 63 72 65 	movabs $0x6573616572636e49,%rax
  402733:	61 73 65 
  402736:	48 89 43 20          	mov    %rax,0x20(%rbx)
  40273a:	48 b8 20 53 55 42 4d 	movabs $0x5254494d42555320,%rax
  402741:	49 54 52 
  402744:	48 89 43 28          	mov    %rax,0x28(%rbx)
  402748:	48 b8 5f 4d 41 58 42 	movabs $0x46554258414d5f,%rax
  40274f:	55 46 00 
  402752:	48 89 43 30          	mov    %rax,0x30(%rbx)
  402756:	89 ef                	mov    %ebp,%edi
  402758:	e8 f3 e5 ff ff       	callq  400d50 <close@plt>
  40275d:	b8 ff ff ff ff       	mov    $0xffffffff,%eax
  402762:	e9 9f 04 00 00       	jmpq   402c06 <submitr+0x761>
  402767:	48 8d b4 24 40 40 00 	lea    0x4040(%rsp),%rsi
  40276e:	00 
  40276f:	b9 00 04 00 00       	mov    $0x400,%ecx
  402774:	b8 00 00 00 00       	mov    $0x0,%eax
  402779:	48 89 f7             	mov    %rsi,%rdi
  40277c:	f3 48 ab             	rep stos %rax,%es:(%rdi)
  40277f:	4c 89 e7             	mov    %r12,%rdi
  402782:	e8 11 fc ff ff       	callq  402398 <urlencode>
  402787:	85 c0                	test   %eax,%eax
  402789:	0f 89 8a 00 00 00    	jns    402819 <submitr+0x374>
  40278f:	48 b8 45 72 72 6f 72 	movabs $0x52203a726f727245,%rax
  402796:	3a 20 52 
  402799:	48 89 03             	mov    %rax,(%rbx)
  40279c:	48 b8 65 73 75 6c 74 	movabs $0x747320746c757365,%rax
  4027a3:	20 73 74 
  4027a6:	48 89 43 08          	mov    %rax,0x8(%rbx)
  4027aa:	48 b8 72 69 6e 67 20 	movabs $0x6e6f6320676e6972,%rax
  4027b1:	63 6f 6e 
  4027b4:	48 89 43 10          	mov    %rax,0x10(%rbx)
  4027b8:	48 b8 74 61 69 6e 73 	movabs $0x6e6120736e696174,%rax
  4027bf:	20 61 6e 
  4027c2:	48 89 43 18          	mov    %rax,0x18(%rbx)
  4027c6:	48 b8 20 69 6c 6c 65 	movabs $0x6c6167656c6c6920,%rax
  4027cd:	67 61 6c 
  4027d0:	48 89 43 20          	mov    %rax,0x20(%rbx)
  4027d4:	48 b8 20 6f 72 20 75 	movabs $0x72706e7520726f20,%rax
  4027db:	6e 70 72 
  4027de:	48 89 43 28          	mov    %rax,0x28(%rbx)
  4027e2:	48 b8 69 6e 74 61 62 	movabs $0x20656c6261746e69,%rax
  4027e9:	6c 65 20 
  4027ec:	48 89 43 30          	mov    %rax,0x30(%rbx)
  4027f0:	48 b8 63 68 61 72 61 	movabs $0x6574636172616863,%rax
  4027f7:	63 74 65 
  4027fa:	48 89 43 38          	mov    %rax,0x38(%rbx)
  4027fe:	66 c7 43 40 72 2e    	movw   $0x2e72,0x40(%rbx)
  402804:	c6 43 42 00          	movb   $0x0,0x42(%rbx)
  402808:	89 ef                	mov    %ebp,%edi
  40280a:	e8 41 e5 ff ff       	callq  400d50 <close@plt>
  40280f:	b8 ff ff ff ff       	mov    $0xffffffff,%eax
  402814:	e9 ed 03 00 00       	jmpq   402c06 <submitr+0x761>
  402819:	4c 8d a4 24 40 20 00 	lea    0x2040(%rsp),%r12
  402820:	00 
  402821:	48 83 ec 08          	sub    $0x8,%rsp
  402825:	41 55                	push   %r13
  402827:	48 8d 84 24 50 40 00 	lea    0x4050(%rsp),%rax
  40282e:	00 
  40282f:	50                   	push   %rax
  402830:	41 56                	push   %r14
  402832:	4d 89 f9             	mov    %r15,%r9
  402835:	4c 8b 44 24 20       	mov    0x20(%rsp),%r8
  40283a:	b9 88 37 40 00       	mov    $0x403788,%ecx
  40283f:	ba 00 20 00 00       	mov    $0x2000,%edx
  402844:	be 01 00 00 00       	mov    $0x1,%esi
  402849:	4c 89 e7             	mov    %r12,%rdi
  40284c:	b8 00 00 00 00       	mov    $0x0,%eax
  402851:	e8 4a e6 ff ff       	callq  400ea0 <__sprintf_chk@plt>
  402856:	b8 00 00 00 00       	mov    $0x0,%eax
  40285b:	48 c7 c1 ff ff ff ff 	mov    $0xffffffffffffffff,%rcx
  402862:	4c 89 e7             	mov    %r12,%rdi
  402865:	f2 ae                	repnz scas %es:(%rdi),%al
  402867:	48 f7 d1             	not    %rcx
  40286a:	48 8d 51 ff          	lea    -0x1(%rcx),%rdx
  40286e:	48 83 c4 20          	add    $0x20,%rsp
  402872:	4c 89 e6             	mov    %r12,%rsi
  402875:	89 ef                	mov    %ebp,%edi
  402877:	e8 8b f9 ff ff       	callq  402207 <rio_writen>
  40287c:	48 85 c0             	test   %rax,%rax
  40287f:	79 6b                	jns    4028ec <submitr+0x447>
  402881:	48 b8 45 72 72 6f 72 	movabs $0x43203a726f727245,%rax
  402888:	3a 20 43 
  40288b:	48 89 03             	mov    %rax,(%rbx)
  40288e:	48 b8 6c 69 65 6e 74 	movabs $0x6e7520746e65696c,%rax
  402895:	20 75 6e 
  402898:	48 89 43 08          	mov    %rax,0x8(%rbx)
  40289c:	48 b8 61 62 6c 65 20 	movabs $0x206f7420656c6261,%rax
  4028a3:	74 6f 20 
  4028a6:	48 89 43 10          	mov    %rax,0x10(%rbx)
  4028aa:	48 b8 77 72 69 74 65 	movabs $0x6f74206574697277,%rax
  4028b1:	20 74 6f 
  4028b4:	48 89 43 18          	mov    %rax,0x18(%rbx)
  4028b8:	48 b8 20 74 68 65 20 	movabs $0x7475412065687420,%rax
  4028bf:	41 75 74 
  4028c2:	48 89 43 20          	mov    %rax,0x20(%rbx)
  4028c6:	48 b8 6f 6c 61 62 20 	movabs $0x7265732062616c6f,%rax
  4028cd:	73 65 72 
  4028d0:	48 89 43 28          	mov    %rax,0x28(%rbx)
  4028d4:	c7 43 30 76 65 72 00 	movl   $0x726576,0x30(%rbx)
  4028db:	89 ef                	mov    %ebp,%edi
  4028dd:	e8 6e e4 ff ff       	callq  400d50 <close@plt>
  4028e2:	b8 ff ff ff ff       	mov    $0xffffffff,%eax
  4028e7:	e9 1a 03 00 00       	jmpq   402c06 <submitr+0x761>
  4028ec:	89 ee                	mov    %ebp,%esi
  4028ee:	48 8d 7c 24 30       	lea    0x30(%rsp),%rdi
  4028f3:	e8 cf f8 ff ff       	callq  4021c7 <rio_readinitb>
  4028f8:	ba 00 20 00 00       	mov    $0x2000,%edx
  4028fd:	48 8d b4 24 40 20 00 	lea    0x2040(%rsp),%rsi
  402904:	00 
  402905:	48 8d 7c 24 30       	lea    0x30(%rsp),%rdi
  40290a:	e8 df f9 ff ff       	callq  4022ee <rio_readlineb>
  40290f:	48 85 c0             	test   %rax,%rax
  402912:	7f 7f                	jg     402993 <submitr+0x4ee>
  402914:	48 b8 45 72 72 6f 72 	movabs $0x43203a726f727245,%rax
  40291b:	3a 20 43 
  40291e:	48 89 03             	mov    %rax,(%rbx)
  402921:	48 b8 6c 69 65 6e 74 	movabs $0x6e7520746e65696c,%rax
  402928:	20 75 6e 
  40292b:	48 89 43 08          	mov    %rax,0x8(%rbx)
  40292f:	48 b8 61 62 6c 65 20 	movabs $0x206f7420656c6261,%rax
  402936:	74 6f 20 
  402939:	48 89 43 10          	mov    %rax,0x10(%rbx)
  40293d:	48 b8 72 65 61 64 20 	movabs $0x7269662064616572,%rax
  402944:	66 69 72 
  402947:	48 89 43 18          	mov    %rax,0x18(%rbx)
  40294b:	48 b8 73 74 20 68 65 	movabs $0x6564616568207473,%rax
  402952:	61 64 65 
  402955:	48 89 43 20          	mov    %rax,0x20(%rbx)
  402959:	48 b8 72 20 66 72 6f 	movabs $0x41206d6f72662072,%rax
  402960:	6d 20 41 
  402963:	48 89 43 28          	mov    %rax,0x28(%rbx)
  402967:	48 b8 75 74 6f 6c 61 	movabs $0x732062616c6f7475,%rax
  40296e:	62 20 73 
  402971:	48 89 43 30          	mov    %rax,0x30(%rbx)
  402975:	c7 43 38 65 72 76 65 	movl   $0x65767265,0x38(%rbx)
  40297c:	66 c7 43 3c 72 00    	movw   $0x72,0x3c(%rbx)
  402982:	89 ef                	mov    %ebp,%edi
  402984:	e8 c7 e3 ff ff       	callq  400d50 <close@plt>
  402989:	b8 ff ff ff ff       	mov    $0xffffffff,%eax
  40298e:	e9 73 02 00 00       	jmpq   402c06 <submitr+0x761>
  402993:	4c 8d 84 24 40 80 00 	lea    0x8040(%rsp),%r8
  40299a:	00 
  40299b:	48 8d 4c 24 1c       	lea    0x1c(%rsp),%rcx
  4029a0:	48 8d 94 24 40 60 00 	lea    0x6040(%rsp),%rdx
  4029a7:	00 
  4029a8:	be 1f 38 40 00       	mov    $0x40381f,%esi
  4029ad:	48 8d bc 24 40 20 00 	lea    0x2040(%rsp),%rdi
  4029b4:	00 
  4029b5:	b8 00 00 00 00       	mov    $0x0,%eax
  4029ba:	e8 41 e4 ff ff       	callq  400e00 <__isoc99_sscanf@plt>
  4029bf:	e9 92 00 00 00       	jmpq   402a56 <submitr+0x5b1>
  4029c4:	ba 00 20 00 00       	mov    $0x2000,%edx
  4029c9:	48 8d b4 24 40 20 00 	lea    0x2040(%rsp),%rsi
  4029d0:	00 
  4029d1:	48 8d 7c 24 30       	lea    0x30(%rsp),%rdi
  4029d6:	e8 13 f9 ff ff       	callq  4022ee <rio_readlineb>
  4029db:	48 85 c0             	test   %rax,%rax
  4029de:	7f 76                	jg     402a56 <submitr+0x5b1>
  4029e0:	48 b8 45 72 72 6f 72 	movabs $0x43203a726f727245,%rax
  4029e7:	3a 20 43 
  4029ea:	48 89 03             	mov    %rax,(%rbx)
  4029ed:	48 b8 6c 69 65 6e 74 	movabs $0x6e7520746e65696c,%rax
  4029f4:	20 75 6e 
  4029f7:	48 89 43 08          	mov    %rax,0x8(%rbx)
  4029fb:	48 b8 61 62 6c 65 20 	movabs $0x206f7420656c6261,%rax
  402a02:	74 6f 20 
  402a05:	48 89 43 10          	mov    %rax,0x10(%rbx)
  402a09:	48 b8 72 65 61 64 20 	movabs $0x6165682064616572,%rax
  402a10:	68 65 61 
  402a13:	48 89 43 18          	mov    %rax,0x18(%rbx)
  402a17:	48 b8 64 65 72 73 20 	movabs $0x6f72662073726564,%rax
  402a1e:	66 72 6f 
  402a21:	48 89 43 20          	mov    %rax,0x20(%rbx)
  402a25:	48 b8 6d 20 41 75 74 	movabs $0x616c6f747541206d,%rax
  402a2c:	6f 6c 61 
  402a2f:	48 89 43 28          	mov    %rax,0x28(%rbx)
  402a33:	48 b8 62 20 73 65 72 	movabs $0x7265767265732062,%rax
  402a3a:	76 65 72 
  402a3d:	48 89 43 30          	mov    %rax,0x30(%rbx)
  402a41:	c6 43 38 00          	movb   $0x0,0x38(%rbx)
  402a45:	89 ef                	mov    %ebp,%edi
  402a47:	e8 04 e3 ff ff       	callq  400d50 <close@plt>
  402a4c:	b8 ff ff ff ff       	mov    $0xffffffff,%eax
  402a51:	e9 b0 01 00 00       	jmpq   402c06 <submitr+0x761>
  402a56:	0f b6 94 24 40 20 00 	movzbl 0x2040(%rsp),%edx
  402a5d:	00 
  402a5e:	b8 0d 00 00 00       	mov    $0xd,%eax
  402a63:	29 d0                	sub    %edx,%eax
  402a65:	75 1b                	jne    402a82 <submitr+0x5dd>
  402a67:	0f b6 94 24 41 20 00 	movzbl 0x2041(%rsp),%edx
  402a6e:	00 
  402a6f:	b8 0a 00 00 00       	mov    $0xa,%eax
  402a74:	29 d0                	sub    %edx,%eax
  402a76:	75 0a                	jne    402a82 <submitr+0x5dd>
  402a78:	0f b6 84 24 42 20 00 	movzbl 0x2042(%rsp),%eax
  402a7f:	00 
  402a80:	f7 d8                	neg    %eax
  402a82:	85 c0                	test   %eax,%eax
  402a84:	0f 85 3a ff ff ff    	jne    4029c4 <submitr+0x51f>
  402a8a:	ba 00 20 00 00       	mov    $0x2000,%edx
  402a8f:	48 8d b4 24 40 20 00 	lea    0x2040(%rsp),%rsi
  402a96:	00 
  402a97:	48 8d 7c 24 30       	lea    0x30(%rsp),%rdi
  402a9c:	e8 4d f8 ff ff       	callq  4022ee <rio_readlineb>
  402aa1:	48 85 c0             	test   %rax,%rax
  402aa4:	0f 8f 80 00 00 00    	jg     402b2a <submitr+0x685>
  402aaa:	48 b8 45 72 72 6f 72 	movabs $0x43203a726f727245,%rax
  402ab1:	3a 20 43 
  402ab4:	48 89 03             	mov    %rax,(%rbx)
  402ab7:	48 b8 6c 69 65 6e 74 	movabs $0x6e7520746e65696c,%rax
  402abe:	20 75 6e 
  402ac1:	48 89 43 08          	mov    %rax,0x8(%rbx)
  402ac5:	48 b8 61 62 6c 65 20 	movabs $0x206f7420656c6261,%rax
  402acc:	74 6f 20 
  402acf:	48 89 43 10          	mov    %rax,0x10(%rbx)
  402ad3:	48 b8 72 65 61 64 20 	movabs $0x6174732064616572,%rax
  402ada:	73 74 61 
  402add:	48 89 43 18          	mov    %rax,0x18(%rbx)
  402ae1:	48 b8 74 75 73 20 6d 	movabs $0x7373656d20737574,%rax
  402ae8:	65 73 73 
  402aeb:	48 89 43 20          	mov    %rax,0x20(%rbx)
  402aef:	48 b8 61 67 65 20 66 	movabs $0x6d6f726620656761,%rax
  402af6:	72 6f 6d 
  402af9:	48 89 43 28          	mov    %rax,0x28(%rbx)
  402afd:	48 b8 20 41 75 74 6f 	movabs $0x62616c6f74754120,%rax
  402b04:	6c 61 62 
  402b07:	48 89 43 30          	mov    %rax,0x30(%rbx)
  402b0b:	48 b8 20 73 65 72 76 	movabs $0x72657672657320,%rax
  402b12:	65 72 00 
  402b15:	48 89 43 38          	mov    %rax,0x38(%rbx)
  402b19:	89 ef                	mov    %ebp,%edi
  402b1b:	e8 30 e2 ff ff       	callq  400d50 <close@plt>
  402b20:	b8 ff ff ff ff       	mov    $0xffffffff,%eax
  402b25:	e9 dc 00 00 00       	jmpq   402c06 <submitr+0x761>
  402b2a:	44 8b 44 24 1c       	mov    0x1c(%rsp),%r8d
  402b2f:	41 81 f8 c8 00 00 00 	cmp    $0xc8,%r8d
  402b36:	74 37                	je     402b6f <submitr+0x6ca>
  402b38:	4c 8d 8c 24 40 80 00 	lea    0x8040(%rsp),%r9
  402b3f:	00 
  402b40:	b9 e8 37 40 00       	mov    $0x4037e8,%ecx
  402b45:	48 c7 c2 ff ff ff ff 	mov    $0xffffffffffffffff,%rdx
  402b4c:	be 01 00 00 00       	mov    $0x1,%esi
  402b51:	48 89 df             	mov    %rbx,%rdi
  402b54:	b8 00 00 00 00       	mov    $0x0,%eax
  402b59:	e8 42 e3 ff ff       	callq  400ea0 <__sprintf_chk@plt>
  402b5e:	89 ef                	mov    %ebp,%edi
  402b60:	e8 eb e1 ff ff       	callq  400d50 <close@plt>
  402b65:	b8 ff ff ff ff       	mov    $0xffffffff,%eax
  402b6a:	e9 97 00 00 00       	jmpq   402c06 <submitr+0x761>
  402b6f:	48 8d b4 24 40 20 00 	lea    0x2040(%rsp),%rsi
  402b76:	00 
  402b77:	48 89 df             	mov    %rbx,%rdi
  402b7a:	e8 61 e1 ff ff       	callq  400ce0 <strcpy@plt>
  402b7f:	89 ef                	mov    %ebp,%edi
  402b81:	e8 ca e1 ff ff       	callq  400d50 <close@plt>
  402b86:	0f b6 03             	movzbl (%rbx),%eax
  402b89:	ba 4f 00 00 00       	mov    $0x4f,%edx
  402b8e:	29 c2                	sub    %eax,%edx
  402b90:	75 22                	jne    402bb4 <submitr+0x70f>
  402b92:	0f b6 4b 01          	movzbl 0x1(%rbx),%ecx
  402b96:	b8 4b 00 00 00       	mov    $0x4b,%eax
  402b9b:	29 c8                	sub    %ecx,%eax
  402b9d:	75 17                	jne    402bb6 <submitr+0x711>
  402b9f:	0f b6 4b 02          	movzbl 0x2(%rbx),%ecx
  402ba3:	b8 0a 00 00 00       	mov    $0xa,%eax
  402ba8:	29 c8                	sub    %ecx,%eax
  402baa:	75 0a                	jne    402bb6 <submitr+0x711>
  402bac:	0f b6 43 03          	movzbl 0x3(%rbx),%eax
  402bb0:	f7 d8                	neg    %eax
  402bb2:	eb 02                	jmp    402bb6 <submitr+0x711>
  402bb4:	89 d0                	mov    %edx,%eax
  402bb6:	85 c0                	test   %eax,%eax
  402bb8:	74 40                	je     402bfa <submitr+0x755>
  402bba:	bf 30 38 40 00       	mov    $0x403830,%edi
  402bbf:	b9 05 00 00 00       	mov    $0x5,%ecx
  402bc4:	48 89 de             	mov    %rbx,%rsi
  402bc7:	f3 a6                	repz cmpsb %es:(%rdi),%ds:(%rsi)
  402bc9:	0f 97 c0             	seta   %al
  402bcc:	0f 92 c1             	setb   %cl
  402bcf:	29 c8                	sub    %ecx,%eax
  402bd1:	0f be c0             	movsbl %al,%eax
  402bd4:	85 c0                	test   %eax,%eax
  402bd6:	74 2e                	je     402c06 <submitr+0x761>
  402bd8:	85 d2                	test   %edx,%edx
  402bda:	75 13                	jne    402bef <submitr+0x74a>
  402bdc:	0f b6 43 01          	movzbl 0x1(%rbx),%eax
  402be0:	ba 4b 00 00 00       	mov    $0x4b,%edx
  402be5:	29 c2                	sub    %eax,%edx
  402be7:	75 06                	jne    402bef <submitr+0x74a>
  402be9:	0f b6 53 02          	movzbl 0x2(%rbx),%edx
  402bed:	f7 da                	neg    %edx
  402bef:	85 d2                	test   %edx,%edx
  402bf1:	75 0e                	jne    402c01 <submitr+0x75c>
  402bf3:	b8 00 00 00 00       	mov    $0x0,%eax
  402bf8:	eb 0c                	jmp    402c06 <submitr+0x761>
  402bfa:	b8 00 00 00 00       	mov    $0x0,%eax
  402bff:	eb 05                	jmp    402c06 <submitr+0x761>
  402c01:	b8 ff ff ff ff       	mov    $0xffffffff,%eax
  402c06:	48 8b 9c 24 48 a0 00 	mov    0xa048(%rsp),%rbx
  402c0d:	00 
  402c0e:	64 48 33 1c 25 28 00 	xor    %fs:0x28,%rbx
  402c15:	00 00 
  402c17:	74 05                	je     402c1e <submitr+0x779>
  402c19:	e8 f2 e0 ff ff       	callq  400d10 <__stack_chk_fail@plt>
  402c1e:	48 81 c4 58 a0 00 00 	add    $0xa058,%rsp
  402c25:	5b                   	pop    %rbx
  402c26:	5d                   	pop    %rbp
  402c27:	41 5c                	pop    %r12
  402c29:	41 5d                	pop    %r13
  402c2b:	41 5e                	pop    %r14
  402c2d:	41 5f                	pop    %r15
  402c2f:	c3                   	retq   

0000000000402c30 <init_timeout>:
  402c30:	85 ff                	test   %edi,%edi
  402c32:	74 23                	je     402c57 <init_timeout+0x27>
  402c34:	53                   	push   %rbx
  402c35:	89 fb                	mov    %edi,%ebx
  402c37:	85 ff                	test   %edi,%edi
  402c39:	79 05                	jns    402c40 <init_timeout+0x10>
  402c3b:	bb 00 00 00 00       	mov    $0x0,%ebx
  402c40:	be d9 21 40 00       	mov    $0x4021d9,%esi
  402c45:	bf 0e 00 00 00       	mov    $0xe,%edi
  402c4a:	e8 31 e1 ff ff       	callq  400d80 <signal@plt>
  402c4f:	89 df                	mov    %ebx,%edi
  402c51:	e8 ea e0 ff ff       	callq  400d40 <alarm@plt>
  402c56:	5b                   	pop    %rbx
  402c57:	f3 c3                	repz retq 

0000000000402c59 <init_driver>:
  402c59:	55                   	push   %rbp
  402c5a:	53                   	push   %rbx
  402c5b:	48 83 ec 28          	sub    $0x28,%rsp
  402c5f:	48 89 fd             	mov    %rdi,%rbp
  402c62:	64 48 8b 04 25 28 00 	mov    %fs:0x28,%rax
  402c69:	00 00 
  402c6b:	48 89 44 24 18       	mov    %rax,0x18(%rsp)
  402c70:	31 c0                	xor    %eax,%eax
  402c72:	be 01 00 00 00       	mov    $0x1,%esi
  402c77:	bf 0d 00 00 00       	mov    $0xd,%edi
  402c7c:	e8 ff e0 ff ff       	callq  400d80 <signal@plt>
  402c81:	be 01 00 00 00       	mov    $0x1,%esi
  402c86:	bf 1d 00 00 00       	mov    $0x1d,%edi
  402c8b:	e8 f0 e0 ff ff       	callq  400d80 <signal@plt>
  402c90:	be 01 00 00 00       	mov    $0x1,%esi
  402c95:	bf 1d 00 00 00       	mov    $0x1d,%edi
  402c9a:	e8 e1 e0 ff ff       	callq  400d80 <signal@plt>
  402c9f:	ba 00 00 00 00       	mov    $0x0,%edx
  402ca4:	be 01 00 00 00       	mov    $0x1,%esi
  402ca9:	bf 02 00 00 00       	mov    $0x2,%edi
  402cae:	e8 fd e1 ff ff       	callq  400eb0 <socket@plt>
  402cb3:	85 c0                	test   %eax,%eax
  402cb5:	79 4f                	jns    402d06 <init_driver+0xad>
  402cb7:	48 b8 45 72 72 6f 72 	movabs $0x43203a726f727245,%rax
  402cbe:	3a 20 43 
  402cc1:	48 89 45 00          	mov    %rax,0x0(%rbp)
  402cc5:	48 b8 6c 69 65 6e 74 	movabs $0x6e7520746e65696c,%rax
  402ccc:	20 75 6e 
  402ccf:	48 89 45 08          	mov    %rax,0x8(%rbp)
  402cd3:	48 b8 61 62 6c 65 20 	movabs $0x206f7420656c6261,%rax
  402cda:	74 6f 20 
  402cdd:	48 89 45 10          	mov    %rax,0x10(%rbp)
  402ce1:	48 b8 63 72 65 61 74 	movabs $0x7320657461657263,%rax
  402ce8:	65 20 73 
  402ceb:	48 89 45 18          	mov    %rax,0x18(%rbp)
  402cef:	c7 45 20 6f 63 6b 65 	movl   $0x656b636f,0x20(%rbp)
  402cf6:	66 c7 45 24 74 00    	movw   $0x74,0x24(%rbp)
  402cfc:	b8 ff ff ff ff       	mov    $0xffffffff,%eax
  402d01:	e9 2a 01 00 00       	jmpq   402e30 <init_driver+0x1d7>
  402d06:	89 c3                	mov    %eax,%ebx
  402d08:	bf 55 33 40 00       	mov    $0x403355,%edi
  402d0d:	e8 7e e0 ff ff       	callq  400d90 <gethostbyname@plt>
  402d12:	48 85 c0             	test   %rax,%rax
  402d15:	75 68                	jne    402d7f <init_driver+0x126>
  402d17:	48 b8 45 72 72 6f 72 	movabs $0x44203a726f727245,%rax
  402d1e:	3a 20 44 
  402d21:	48 89 45 00          	mov    %rax,0x0(%rbp)
  402d25:	48 b8 4e 53 20 69 73 	movabs $0x6e7520736920534e,%rax
  402d2c:	20 75 6e 
  402d2f:	48 89 45 08          	mov    %rax,0x8(%rbp)
  402d33:	48 b8 61 62 6c 65 20 	movabs $0x206f7420656c6261,%rax
  402d3a:	74 6f 20 
  402d3d:	48 89 45 10          	mov    %rax,0x10(%rbp)
  402d41:	48 b8 72 65 73 6f 6c 	movabs $0x2065766c6f736572,%rax
  402d48:	76 65 20 
  402d4b:	48 89 45 18          	mov    %rax,0x18(%rbp)
  402d4f:	48 b8 73 65 72 76 65 	movabs $0x6120726576726573,%rax
  402d56:	72 20 61 
  402d59:	48 89 45 20          	mov    %rax,0x20(%rbp)
  402d5d:	c7 45 28 64 64 72 65 	movl   $0x65726464,0x28(%rbp)
  402d64:	66 c7 45 2c 73 73    	movw   $0x7373,0x2c(%rbp)
  402d6a:	c6 45 2e 00          	movb   $0x0,0x2e(%rbp)
  402d6e:	89 df                	mov    %ebx,%edi
  402d70:	e8 db df ff ff       	callq  400d50 <close@plt>
  402d75:	b8 ff ff ff ff       	mov    $0xffffffff,%eax
  402d7a:	e9 b1 00 00 00       	jmpq   402e30 <init_driver+0x1d7>
  402d7f:	48 c7 04 24 00 00 00 	movq   $0x0,(%rsp)
  402d86:	00 
  402d87:	48 c7 44 24 08 00 00 	movq   $0x0,0x8(%rsp)
  402d8e:	00 00 
  402d90:	66 c7 04 24 02 00    	movw   $0x2,(%rsp)
  402d96:	48 63 50 14          	movslq 0x14(%rax),%rdx
  402d9a:	48 8b 40 18          	mov    0x18(%rax),%rax
  402d9e:	48 8b 30             	mov    (%rax),%rsi
  402da1:	48 8d 7c 24 04       	lea    0x4(%rsp),%rdi
  402da6:	b9 0c 00 00 00       	mov    $0xc,%ecx
  402dab:	e8 f0 df ff ff       	callq  400da0 <__memmove_chk@plt>
  402db0:	66 c7 44 24 02 00 50 	movw   $0x5000,0x2(%rsp)
  402db7:	ba 10 00 00 00       	mov    $0x10,%edx
  402dbc:	48 89 e6             	mov    %rsp,%rsi
  402dbf:	89 df                	mov    %ebx,%edi
  402dc1:	e8 ba e0 ff ff       	callq  400e80 <connect@plt>
  402dc6:	85 c0                	test   %eax,%eax
  402dc8:	79 50                	jns    402e1a <init_driver+0x1c1>
  402dca:	48 b8 45 72 72 6f 72 	movabs $0x55203a726f727245,%rax
  402dd1:	3a 20 55 
  402dd4:	48 89 45 00          	mov    %rax,0x0(%rbp)
  402dd8:	48 b8 6e 61 62 6c 65 	movabs $0x6f7420656c62616e,%rax
  402ddf:	20 74 6f 
  402de2:	48 89 45 08          	mov    %rax,0x8(%rbp)
  402de6:	48 b8 20 63 6f 6e 6e 	movabs $0x7463656e6e6f6320,%rax
  402ded:	65 63 74 
  402df0:	48 89 45 10          	mov    %rax,0x10(%rbp)
  402df4:	48 b8 20 74 6f 20 73 	movabs $0x76726573206f7420,%rax
  402dfb:	65 72 76 
  402dfe:	48 89 45 18          	mov    %rax,0x18(%rbp)
  402e02:	66 c7 45 20 65 72    	movw   $0x7265,0x20(%rbp)
  402e08:	c6 45 22 00          	movb   $0x0,0x22(%rbp)
  402e0c:	89 df                	mov    %ebx,%edi
  402e0e:	e8 3d df ff ff       	callq  400d50 <close@plt>
  402e13:	b8 ff ff ff ff       	mov    $0xffffffff,%eax
  402e18:	eb 16                	jmp    402e30 <init_driver+0x1d7>
  402e1a:	89 df                	mov    %ebx,%edi
  402e1c:	e8 2f df ff ff       	callq  400d50 <close@plt>
  402e21:	66 c7 45 00 4f 4b    	movw   $0x4b4f,0x0(%rbp)
  402e27:	c6 45 02 00          	movb   $0x0,0x2(%rbp)
  402e2b:	b8 00 00 00 00       	mov    $0x0,%eax
  402e30:	48 8b 4c 24 18       	mov    0x18(%rsp),%rcx
  402e35:	64 48 33 0c 25 28 00 	xor    %fs:0x28,%rcx
  402e3c:	00 00 
  402e3e:	74 05                	je     402e45 <init_driver+0x1ec>
  402e40:	e8 cb de ff ff       	callq  400d10 <__stack_chk_fail@plt>
  402e45:	48 83 c4 28          	add    $0x28,%rsp
  402e49:	5b                   	pop    %rbx
  402e4a:	5d                   	pop    %rbp
  402e4b:	c3                   	retq   

0000000000402e4c <driver_post>:
  402e4c:	53                   	push   %rbx
  402e4d:	4c 89 cb             	mov    %r9,%rbx
  402e50:	45 85 c0             	test   %r8d,%r8d
  402e53:	74 27                	je     402e7c <driver_post+0x30>
  402e55:	48 89 ca             	mov    %rcx,%rdx
  402e58:	be 35 38 40 00       	mov    $0x403835,%esi
  402e5d:	bf 01 00 00 00       	mov    $0x1,%edi
  402e62:	b8 00 00 00 00       	mov    $0x0,%eax
  402e67:	e8 b4 df ff ff       	callq  400e20 <__printf_chk@plt>
  402e6c:	66 c7 03 4f 4b       	movw   $0x4b4f,(%rbx)
  402e71:	c6 43 02 00          	movb   $0x0,0x2(%rbx)
  402e75:	b8 00 00 00 00       	mov    $0x0,%eax
  402e7a:	eb 3f                	jmp    402ebb <driver_post+0x6f>
  402e7c:	48 85 ff             	test   %rdi,%rdi
  402e7f:	74 2c                	je     402ead <driver_post+0x61>
  402e81:	80 3f 00             	cmpb   $0x0,(%rdi)
  402e84:	74 27                	je     402ead <driver_post+0x61>
  402e86:	48 83 ec 08          	sub    $0x8,%rsp
  402e8a:	41 51                	push   %r9
  402e8c:	49 89 c9             	mov    %rcx,%r9
  402e8f:	49 89 d0             	mov    %rdx,%r8
  402e92:	48 89 f9             	mov    %rdi,%rcx
  402e95:	48 89 f2             	mov    %rsi,%rdx
  402e98:	be 50 00 00 00       	mov    $0x50,%esi
  402e9d:	bf 55 33 40 00       	mov    $0x403355,%edi
  402ea2:	e8 fe f5 ff ff       	callq  4024a5 <submitr>
  402ea7:	48 83 c4 10          	add    $0x10,%rsp
  402eab:	eb 0e                	jmp    402ebb <driver_post+0x6f>
  402ead:	66 c7 03 4f 4b       	movw   $0x4b4f,(%rbx)
  402eb2:	c6 43 02 00          	movb   $0x0,0x2(%rbx)
  402eb6:	b8 00 00 00 00       	mov    $0x0,%eax
  402ebb:	5b                   	pop    %rbx
  402ebc:	c3                   	retq   

0000000000402ebd <check>:
  402ebd:	89 f8                	mov    %edi,%eax
  402ebf:	c1 e8 1c             	shr    $0x1c,%eax
  402ec2:	85 c0                	test   %eax,%eax
  402ec4:	74 1d                	je     402ee3 <check+0x26>
  402ec6:	b9 00 00 00 00       	mov    $0x0,%ecx
  402ecb:	eb 0b                	jmp    402ed8 <check+0x1b>
  402ecd:	89 f8                	mov    %edi,%eax
  402ecf:	d3 e8                	shr    %cl,%eax
  402ed1:	3c 0a                	cmp    $0xa,%al
  402ed3:	74 14                	je     402ee9 <check+0x2c>
  402ed5:	83 c1 08             	add    $0x8,%ecx
  402ed8:	83 f9 1f             	cmp    $0x1f,%ecx
  402edb:	7e f0                	jle    402ecd <check+0x10>
  402edd:	b8 01 00 00 00       	mov    $0x1,%eax
  402ee2:	c3                   	retq   
  402ee3:	b8 00 00 00 00       	mov    $0x0,%eax
  402ee8:	c3                   	retq   
  402ee9:	b8 00 00 00 00       	mov    $0x0,%eax
  402eee:	c3                   	retq   

0000000000402eef <gencookie>:
  402eef:	53                   	push   %rbx
  402ef0:	83 c7 01             	add    $0x1,%edi
  402ef3:	e8 c8 dd ff ff       	callq  400cc0 <srandom@plt>
  402ef8:	e8 e3 de ff ff       	callq  400de0 <random@plt>
  402efd:	89 c3                	mov    %eax,%ebx
  402eff:	89 c7                	mov    %eax,%edi
  402f01:	e8 b7 ff ff ff       	callq  402ebd <check>
  402f06:	85 c0                	test   %eax,%eax
  402f08:	74 ee                	je     402ef8 <gencookie+0x9>
  402f0a:	89 d8                	mov    %ebx,%eax
  402f0c:	5b                   	pop    %rbx
  402f0d:	c3                   	retq   
  402f0e:	66 90                	xchg   %ax,%ax

0000000000402f10 <__libc_csu_init>:
  402f10:	41 57                	push   %r15
  402f12:	41 56                	push   %r14
  402f14:	41 89 ff             	mov    %edi,%r15d
  402f17:	41 55                	push   %r13
  402f19:	41 54                	push   %r12
  402f1b:	4c 8d 25 de 1e 20 00 	lea    0x201ede(%rip),%r12        # 604e00 <__frame_dummy_init_array_entry>
  402f22:	55                   	push   %rbp
  402f23:	48 8d 2d de 1e 20 00 	lea    0x201ede(%rip),%rbp        # 604e08 <__init_array_end>
  402f2a:	53                   	push   %rbx
  402f2b:	49 89 f6             	mov    %rsi,%r14
  402f2e:	49 89 d5             	mov    %rdx,%r13
  402f31:	4c 29 e5             	sub    %r12,%rbp
  402f34:	48 83 ec 08          	sub    $0x8,%rsp
  402f38:	48 c1 fd 03          	sar    $0x3,%rbp
  402f3c:	e8 27 dd ff ff       	callq  400c68 <_init>
  402f41:	48 85 ed             	test   %rbp,%rbp
  402f44:	74 20                	je     402f66 <__libc_csu_init+0x56>
  402f46:	31 db                	xor    %ebx,%ebx
  402f48:	0f 1f 84 00 00 00 00 	nopl   0x0(%rax,%rax,1)
  402f4f:	00 
  402f50:	4c 89 ea             	mov    %r13,%rdx
  402f53:	4c 89 f6             	mov    %r14,%rsi
  402f56:	44 89 ff             	mov    %r15d,%edi
  402f59:	41 ff 14 dc          	callq  *(%r12,%rbx,8)
  402f5d:	48 83 c3 01          	add    $0x1,%rbx
  402f61:	48 39 eb             	cmp    %rbp,%rbx
  402f64:	75 ea                	jne    402f50 <__libc_csu_init+0x40>
  402f66:	48 83 c4 08          	add    $0x8,%rsp
  402f6a:	5b                   	pop    %rbx
  402f6b:	5d                   	pop    %rbp
  402f6c:	41 5c                	pop    %r12
  402f6e:	41 5d                	pop    %r13
  402f70:	41 5e                	pop    %r14
  402f72:	41 5f                	pop    %r15
  402f74:	c3                   	retq   
  402f75:	90                   	nop
  402f76:	66 2e 0f 1f 84 00 00 	nopw   %cs:0x0(%rax,%rax,1)
  402f7d:	00 00 00 

0000000000402f80 <__libc_csu_fini>:
  402f80:	f3 c3                	repz retq 

Disassembly of section .fini:

0000000000402f84 <_fini>:
  402f84:	48 83 ec 08          	sub    $0x8,%rsp
  402f88:	48 83 c4 08          	add    $0x8,%rsp
  402f8c:	c3                   	retq   
